---
triple:          'arm64-apple-darwin'
binary-path:     '/Users/tannu/Repository/CPP/list_chal/main'
relocations:
  - { offsetInCU: 0x4A74, offset: 0x4A74, size: 0x8, addend: 0x0, symName: __ZNSt3__124__put_character_sequenceB7v160006IcNS_11char_traitsIcEEEERNS_13basic_ostreamIT_T0_EES7_PKS4_m, symObjAddr: 0x1F38, symBinAddr: 0x1000051D0, symSize: 0x1EC }
  - { offsetInCU: 0x4A7C, offset: 0x4A7C, size: 0x8, addend: 0x0, symName: __ZNKSt3__112basic_stringIcNS_11char_traitsIcEENS_9allocatorIcEEE4dataB7v160006Ev, symObjAddr: 0x2124, symBinAddr: 0x1000053BC, symSize: 0x28 }
  - { offsetInCU: 0x76BA, offset: 0x76BA, size: 0x8, addend: 0x0, symName: __ZNSt3__1lsB7v160006IcNS_11char_traitsIcEEEERNS_13basic_ostreamIT_T0_EES7_RKNS_8__iom_t6E, symObjAddr: 0xC8, symBinAddr: 0x100003360, symSize: 0x40 }
  - { offsetInCU: 0x76C2, offset: 0x76C2, size: 0x8, addend: 0x0, symName: __ZNSt3__1lsB7v160006IcNS_11char_traitsIcEENS_9allocatorIcEEEERNS_13basic_ostreamIT_T0_EES9_RKNS_12basic_stringIS6_S7_T1_EE, symObjAddr: 0x108, symBinAddr: 0x1000033A0, symSize: 0x4C }
  - { offsetInCU: 0x7722, offset: 0x7722, size: 0x8, addend: 0x0, symName: __ZNSt3__1lsB7v160006IcNS_11char_traitsIcEENS_9allocatorIcEEEERNS_13basic_ostreamIT_T0_EES9_RKNS_12basic_stringIS6_S7_T1_EE, symObjAddr: 0x108, symBinAddr: 0x1000033A0, symSize: 0x4C }
  - { offsetInCU: 0x772A, offset: 0x772A, size: 0x8, addend: 0x0, symName: __ZNSt3__14setwB7v160006Ei, symObjAddr: 0x154, symBinAddr: 0x1000033EC, symSize: 0x2C }
  - { offsetInCU: 0x7797, offset: 0x7797, size: 0x8, addend: 0x0, symName: __ZNSt3__14setwB7v160006Ei, symObjAddr: 0x154, symBinAddr: 0x1000033EC, symSize: 0x2C }
  - { offsetInCU: 0x779F, offset: 0x779F, size: 0x8, addend: 0x0, symName: __ZNSt3__113basic_ostreamIcNS_11char_traitsIcEEElsB7v160006EPFRNS_8ios_baseES5_E, symObjAddr: 0x180, symBinAddr: 0x100003418, symSize: 0x40 }
  - { offsetInCU: 0x77D2, offset: 0x77D2, size: 0x8, addend: 0x0, symName: __ZNSt3__14leftB7v160006ERNS_8ios_baseE, symObjAddr: 0x1C0, symBinAddr: 0x100003458, symSize: 0x30 }
  - { offsetInCU: 0x77DA, offset: 0x77DA, size: 0x8, addend: 0x0, symName: __Z13display_maenuv, symObjAddr: 0x1F0, symBinAddr: 0x100003488, symSize: 0xC8 }
  - { offsetInCU: 0x780D, offset: 0x780D, size: 0x8, addend: 0x0, symName: __ZNSt3__1lsB7v160006INS_11char_traitsIcEEEERNS_13basic_ostreamIcT_EES6_PKc, symObjAddr: 0x2B8, symBinAddr: 0x100003550, symSize: 0x48 }
  - { offsetInCU: 0x7815, offset: 0x7815, size: 0x8, addend: 0x0, symName: __ZNSt3__113basic_ostreamIcNS_11char_traitsIcEEElsB7v160006EPFRS3_S4_E, symObjAddr: 0x300, symBinAddr: 0x100003598, symSize: 0x2C }
  - { offsetInCU: 0x7868, offset: 0x7868, size: 0x8, addend: 0x0, symName: __ZNSt3__14endlB7v160006IcNS_11char_traitsIcEEEERNS_13basic_ostreamIT_T0_EES7_, symObjAddr: 0x32C, symBinAddr: 0x1000035C4, symSize: 0x58 }
  - { offsetInCU: 0x7870, offset: 0x7870, size: 0x8, addend: 0x0, symName: __Z17play_current_songRK4Song, symObjAddr: 0x384, symBinAddr: 0x10000361C, symSize: 0x58 }
  - { offsetInCU: 0x9D12, offset: 0x9D12, size: 0x8, addend: 0x0, symName: __ZNSt3__1neB7v160006ERKNS_21__list_const_iteratorI4SongPvEES5_, symObjAddr: 0x508, symBinAddr: 0x1000037A0, symSize: 0x34 }
  - { offsetInCU: 0x9D1A, offset: 0x9D1A, size: 0x8, addend: 0x0, symName: __ZNKSt3__121__list_const_iteratorI4SongPvEdeB7v160006Ev, symObjAddr: 0x53C, symBinAddr: 0x1000037D4, symSize: 0x2C }
  - { offsetInCU: 0x9D60, offset: 0x9D60, size: 0x8, addend: 0x0, symName: __ZNSt3__1rsB7v160006IcNS_11char_traitsIcEEEERNS_13basic_istreamIT_T0_EES7_RS4_, symObjAddr: 0x12D8, symBinAddr: 0x100004570, symSize: 0x190 }
  - { offsetInCU: 0x9D68, offset: 0x9D68, size: 0x8, addend: 0x0, symName: __Z7toupperi, symObjAddr: 0x1468, symBinAddr: 0x100004700, symSize: 0x24 }
  - { offsetInCU: 0x9E07, offset: 0x9E07, size: 0x8, addend: 0x0, symName: __ZNSt3__1eqB7v160006ERKNS_15__list_iteratorI4SongPvEES5_, symObjAddr: 0x14C0, symBinAddr: 0x100004758, symSize: 0x30 }
  - { offsetInCU: 0x9E0F, offset: 0x9E0F, size: 0x8, addend: 0x0, symName: __ZNSt3__14listI4SongNS_9allocatorIS1_EEE3endB7v160006Ev, symObjAddr: 0x14F0, symBinAddr: 0x100004788, symSize: 0x2C }
  - { offsetInCU: 0xA10E, offset: 0xA10E, size: 0x8, addend: 0x0, symName: __ZNSt3__17getlineB7v160006IcNS_11char_traitsIcEENS_9allocatorIcEEEERNS_13basic_istreamIT_T0_EES9_RNS_12basic_stringIS6_S7_T1_EE, symObjAddr: 0x15BC, symBinAddr: 0x100004854, symSize: 0x5C }
  - { offsetInCU: 0xA116, offset: 0xA116, size: 0x8, addend: 0x0, symName: __ZNSt3__14listI4SongNS_9allocatorIS1_EEE6insertENS_21__list_const_iteratorIS1_PvEEOS1_, symObjAddr: 0x1618, symBinAddr: 0x1000048B0, symSize: 0xF4 }
  - { offsetInCU: 0xA183, offset: 0xA183, size: 0x8, addend: 0x0, symName: __ZNSt3__118__debug_db_erase_cB7v160006INS_10__list_impI4SongNS_9allocatorIS2_EEEEEEvPT_, symObjAddr: 0x1AD4, symBinAddr: 0x100004D6C, symSize: 0x10 }
  - { offsetInCU: 0xA18B, offset: 0xA18B, size: 0x8, addend: 0x0, symName: ___clang_call_terminate, symObjAddr: 0x1AE4, symBinAddr: 0x100004D7C, symSize: 0xC }
  - { offsetInCU: 0xA1C2, offset: 0xA1C2, size: 0x8, addend: 0x0, symName: __ZNSt3__125__debug_db_invalidate_allB7v160006INS_10__list_impI4SongNS_9allocatorIS2_EEEEEEvPT_, symObjAddr: 0x1C74, symBinAddr: 0x100004F0C, symSize: 0x10 }
  - { offsetInCU: 0xA1CA, offset: 0xA1CA, size: 0x8, addend: 0x0, symName: __ZNKSt3__110__list_impI4SongNS_9allocatorIS1_EEE4__szB7v160006Ev, symObjAddr: 0x1C84, symBinAddr: 0x100004F1C, symSize: 0x28 }
  - { offsetInCU: 0xA246, offset: 0xA246, size: 0x8, addend: 0x0, symName: __ZNSt3__119__libcpp_deallocateB7v160006EPvmm, symObjAddr: 0x1DE4, symBinAddr: 0x10000507C, symSize: 0x60 }
  - { offsetInCU: 0xA24E, offset: 0xA24E, size: 0x8, addend: 0x0, symName: __ZNSt3__124__is_overaligned_for_newB7v160006Em, symObjAddr: 0x1E44, symBinAddr: 0x1000050DC, symSize: 0x20 }
  - { offsetInCU: 0xA2C4, offset: 0xA2C4, size: 0x8, addend: 0x0, symName: __ZNSt3__124__is_overaligned_for_newB7v160006Em, symObjAddr: 0x1E44, symBinAddr: 0x1000050DC, symSize: 0x20 }
  - { offsetInCU: 0xA2CC, offset: 0xA2CC, size: 0x8, addend: 0x0, symName: __ZNSt3__127__do_deallocate_handle_sizeB7v160006IJSt11align_val_tEEEvPvmDpT_, symObjAddr: 0x1E64, symBinAddr: 0x1000050FC, symSize: 0x30 }
  - { offsetInCU: 0xA300, offset: 0xA300, size: 0x8, addend: 0x0, symName: __ZNSt3__127__do_deallocate_handle_sizeB7v160006IJSt11align_val_tEEEvPvmDpT_, symObjAddr: 0x1E64, symBinAddr: 0x1000050FC, symSize: 0x30 }
  - { offsetInCU: 0xA308, offset: 0xA308, size: 0x8, addend: 0x0, symName: __ZNSt3__127__do_deallocate_handle_sizeB7v160006IJEEEvPvmDpT_, symObjAddr: 0x1E94, symBinAddr: 0x10000512C, symSize: 0x28 }
  - { offsetInCU: 0xA368, offset: 0xA368, size: 0x8, addend: 0x0, symName: __ZNSt3__127__do_deallocate_handle_sizeB7v160006IJEEEvPvmDpT_, symObjAddr: 0x1E94, symBinAddr: 0x10000512C, symSize: 0x28 }
  - { offsetInCU: 0xA370, offset: 0xA370, size: 0x8, addend: 0x0, symName: __ZNSt3__124__libcpp_operator_deleteB7v160006IJPvSt11align_val_tEEEvDpT_, symObjAddr: 0x1EBC, symBinAddr: 0x100005154, symSize: 0x2C }
  - { offsetInCU: 0xA3B3, offset: 0xA3B3, size: 0x8, addend: 0x0, symName: __ZNSt3__124__libcpp_operator_deleteB7v160006IJPvSt11align_val_tEEEvDpT_, symObjAddr: 0x1EBC, symBinAddr: 0x100005154, symSize: 0x2C }
  - { offsetInCU: 0xA3BB, offset: 0xA3BB, size: 0x8, addend: 0x0, symName: __ZNSt3__124__libcpp_operator_deleteB7v160006IJPvEEEvDpT_, symObjAddr: 0x1EE8, symBinAddr: 0x100005180, symSize: 0x24 }
  - { offsetInCU: 0xA411, offset: 0xA411, size: 0x8, addend: 0x0, symName: __ZNSt3__124__libcpp_operator_deleteB7v160006IJPvEEEvDpT_, symObjAddr: 0x1EE8, symBinAddr: 0x100005180, symSize: 0x24 }
  - { offsetInCU: 0xA419, offset: 0xA419, size: 0x8, addend: 0x0, symName: __ZNSt3__18ios_base5widthB7v160006El, symObjAddr: 0x1F0C, symBinAddr: 0x1000051A4, symSize: 0x2C }
  - { offsetInCU: 0xA453, offset: 0xA453, size: 0x8, addend: 0x0, symName: __ZNSt3__116__pad_and_outputB7v160006IcNS_11char_traitsIcEEEENS_19ostreambuf_iteratorIT_T0_EES6_PKS4_S8_S8_RNS_8ios_baseES4_, symObjAddr: 0x21BC, symBinAddr: 0x100005454, symSize: 0x240 }
  - { offsetInCU: 0xA45B, offset: 0xA45B, size: 0x8, addend: 0x0, symName: __ZNSt3__119ostreambuf_iteratorIcNS_11char_traitsIcEEEC1B7v160006ERNS_13basic_ostreamIcS2_EE, symObjAddr: 0x23FC, symBinAddr: 0x100005694, symSize: 0x34 }
  - { offsetInCU: 0xA55B, offset: 0xA55B, size: 0x8, addend: 0x0, symName: __ZNSt3__119__debug_db_insert_cB7v160006INS_12basic_stringIcNS_11char_traitsIcEENS_9allocatorIcEEEEEEvPT_, symObjAddr: 0x2644, symBinAddr: 0x1000058DC, symSize: 0x10 }
  - { offsetInCU: 0xA563, offset: 0xA563, size: 0x8, addend: 0x0, symName: __ZNSt3__117__compressed_pairINS_12basic_stringIcNS_11char_traitsIcEENS_9allocatorIcEEE5__repES5_EC2B7v160006INS_18__default_init_tagESA_EEOT_OT0_, symObjAddr: 0x2654, symBinAddr: 0x1000058EC, symSize: 0x3C }
  - { offsetInCU: 0xA59A, offset: 0xA59A, size: 0x8, addend: 0x0, symName: __ZNSt3__112__to_addressB7v160006IcEEPT_S2_, symObjAddr: 0x2710, symBinAddr: 0x1000059A8, symSize: 0x14 }
  - { offsetInCU: 0xA5A2, offset: 0xA5A2, size: 0x8, addend: 0x0, symName: __ZNSt3__112basic_stringIcNS_11char_traitsIcEENS_9allocatorIcEEE13__get_pointerB7v160006Ev, symObjAddr: 0x2724, symBinAddr: 0x1000059BC, symSize: 0x54 }
  - { offsetInCU: 0xA626, offset: 0xA626, size: 0x8, addend: 0x0, symName: __ZNSt3__19use_facetB7v160006INS_5ctypeIcEEEERKT_RKNS_6localeE, symObjAddr: 0x29C8, symBinAddr: 0x100005C60, symSize: 0x2C }
  - { offsetInCU: 0xA62E, offset: 0xA62E, size: 0x8, addend: 0x0, symName: __ZNKSt3__15ctypeIcE5widenB7v160006Ec, symObjAddr: 0x29F4, symBinAddr: 0x100005C8C, symSize: 0x38 }
  - { offsetInCU: 0xAD67, offset: 0xAD67, size: 0x8, addend: 0x0, symName: __ZNSt3__112__to_addressB7v160006IKcEEPT_S3_, symObjAddr: 0x2A60, symBinAddr: 0x100005CF8, symSize: 0x14 }
  - { offsetInCU: 0xAD6F, offset: 0xAD6F, size: 0x8, addend: 0x0, symName: __ZNKSt3__112basic_stringIcNS_11char_traitsIcEENS_9allocatorIcEEE13__get_pointerB7v160006Ev, symObjAddr: 0x2A74, symBinAddr: 0x100005D0C, symSize: 0x54 }
  - { offsetInCU: 0xADF3, offset: 0xADF3, size: 0x8, addend: 0x0, symName: __ZNSt3__118__constexpr_strlenB7v160006EPKc, symObjAddr: 0x2BBC, symBinAddr: 0x100005E54, symSize: 0x24 }
  - { offsetInCU: 0xADFB, offset: 0xADFB, size: 0x8, addend: 0x0, symName: __ZNKSt3__110__list_impI4SongNS_9allocatorIS1_EEE5beginB7v160006Ev, symObjAddr: 0x2BE0, symBinAddr: 0x100005E78, symSize: 0x30 }
  - { offsetInCU: 0xAE2C, offset: 0xAE2C, size: 0x8, addend: 0x0, symName: __ZNSt3__1eqB7v160006ERKNS_21__list_const_iteratorI4SongPvEES5_, symObjAddr: 0x2CAC, symBinAddr: 0x100005F44, symSize: 0x30 }
  - { offsetInCU: 0xAE34, offset: 0xAE34, size: 0x8, addend: 0x0, symName: __ZNSt3__112basic_stringIcNS_11char_traitsIcEENS_9allocatorIcEEEC2B7v160006IDnEEPKc, symObjAddr: 0x2CDC, symBinAddr: 0x100005F74, symSize: 0x60 }
  - { offsetInCU: 0xAE7B, offset: 0xAE7B, size: 0x8, addend: 0x0, symName: __ZNSt3__119__debug_db_insert_cB7v160006INS_4listI4SongNS_9allocatorIS2_EEEEEEvPT_, symObjAddr: 0x2E54, symBinAddr: 0x1000060EC, symSize: 0x10 }
  - { offsetInCU: 0xAE83, offset: 0xAE83, size: 0x8, addend: 0x0, symName: __ZNKSt16initializer_listI4SongE5beginB7v160006Ev, symObjAddr: 0x2E64, symBinAddr: 0x1000060FC, symSize: 0x18 }
  - { offsetInCU: 0xAEE0, offset: 0xAEE0, size: 0x8, addend: 0x0, symName: __ZNSt3__117__libcpp_allocateB7v160006Emm, symObjAddr: 0x345C, symBinAddr: 0x1000066F4, symSize: 0x60 }
  - { offsetInCU: 0xAEE8, offset: 0xAEE8, size: 0x8, addend: 0x0, symName: __ZNKSt3__19allocatorINS_11__list_nodeI4SongPvEEE8max_sizeB7v160006Ev, symObjAddr: 0x34BC, symBinAddr: 0x100006754, symSize: 0x20 }
  - { offsetInCU: 0xAF53, offset: 0xAF53, size: 0x8, addend: 0x0, symName: __ZNSt3__121__libcpp_operator_newB7v160006IJmSt11align_val_tEEEPvDpT_, symObjAddr: 0x34DC, symBinAddr: 0x100006774, symSize: 0x2C }
  - { offsetInCU: 0xAF5B, offset: 0xAF5B, size: 0x8, addend: 0x0, symName: __ZNSt3__121__libcpp_operator_newB7v160006IJmEEEPvDpT_, symObjAddr: 0x3508, symBinAddr: 0x1000067A0, symSize: 0x24 }
  - { offsetInCU: 0xAFB9, offset: 0xAFB9, size: 0x8, addend: 0x0, symName: __ZNSt3__121__libcpp_operator_newB7v160006IJmEEEPvDpT_, symObjAddr: 0x3508, symBinAddr: 0x1000067A0, symSize: 0x24 }
  - { offsetInCU: 0xAFC1, offset: 0xAFC1, size: 0x8, addend: 0x0, symName: __ZNSt3__122__allocator_destructorINS_9allocatorINS_11__list_nodeI4SongPvEEEEEC2B7v160006ERS6_m, symObjAddr: 0x352C, symBinAddr: 0x1000067C4, symSize: 0x2C }
  - { offsetInCU: 0xB881, offset: 0xB881, size: 0x8, addend: 0x0, symName: __ZNSt3__17getlineB7v160006IcNS_11char_traitsIcEENS_9allocatorIcEEEERNS_13basic_istreamIT_T0_EES9_RNS_12basic_stringIS6_S7_T1_EES6_, symObjAddr: 0x3B20, symBinAddr: 0x100006DB8, symSize: 0x234 }
  - { offsetInCU: 0xB889, offset: 0xB889, size: 0x8, addend: 0x0, symName: __ZNSt3__112basic_stringIcNS_11char_traitsIcEENS_9allocatorIcEEE5clearB7v160006Ev, symObjAddr: 0x3D54, symBinAddr: 0x100006FEC, symSize: 0x88 }
  - { offsetInCU: 0xB974, offset: 0xB974, size: 0x8, addend: 0x0, symName: __ZNSt3__125__debug_db_invalidate_allB7v160006INS_12basic_stringIcNS_11char_traitsIcEENS_9allocatorIcEEEEEEvPT_, symObjAddr: 0x3EB0, symBinAddr: 0x100007148, symSize: 0x10 }
  - { offsetInCU: 0xB97C, offset: 0xB97C, size: 0x8, addend: 0x0, symName: __ZNSt3__111char_traitsIcE6assignERcRKc, symObjAddr: 0x3EC0, symBinAddr: 0x100007158, symSize: 0x24 }
  - { offsetInCU: 0xBC6D, offset: 0xBC6D, size: 0x8, addend: 0x0, symName: __ZNSt3__115__debug_db_swapB7v160006INS_12basic_stringIcNS_11char_traitsIcEENS_9allocatorIcEEEEEEvPT_S8_, symObjAddr: 0x4234, symBinAddr: 0x1000074CC, symSize: 0x14 }
  - { offsetInCU: 0xBC75, offset: 0xBC75, size: 0x8, addend: 0x0, symName: __ZNSt3__121__list_const_iteratorI4SongPvEC2B7v160006ERKNS_15__list_iteratorIS1_S2_EE, symObjAddr: 0x4248, symBinAddr: 0x1000074E0, symSize: 0x24 }
  - { offsetInCU: 0xBE98, offset: 0xBE98, size: 0x8, addend: 0x0, symName: __ZSt28__throw_bad_array_new_lengthB7v160006v, symObjAddr: 0x3428, symBinAddr: 0x1000066C0, symSize: 0x34 }
  - { offsetInCU: 0xBEA0, offset: 0xBEA0, size: 0x8, addend: 0x0, symName: __ZNSt3__117__libcpp_allocateB7v160006Emm, symObjAddr: 0x345C, symBinAddr: 0x1000066F4, symSize: 0x60 }
  - { offsetInCU: 0xC91F, offset: 0xC91F, size: 0x8, addend: 0x0, symName: __Z7toupperi, symObjAddr: 0x1468, symBinAddr: 0x100004700, symSize: 0x24 }
  - { offsetInCU: 0xC927, offset: 0xC927, size: 0x8, addend: 0x0, symName: __ZNSt3__115__list_iteratorI4SongPvEppB7v160006Ei, symObjAddr: 0x148C, symBinAddr: 0x100004724, symSize: 0x34 }
  - { offsetInCU: 0xFAE8, offset: 0xFAE8, size: 0x8, addend: 0x0, symName: __ZlsRNSt3__113basic_ostreamIcNS_11char_traitsIcEEEERK4Song, symObjAddr: 0x0, symBinAddr: 0x100003298, symSize: 0xC8 }
  - { offsetInCU: 0xFAF0, offset: 0xFAF0, size: 0x8, addend: 0x0, symName: __ZNSt3__1lsB7v160006IcNS_11char_traitsIcEEEERNS_13basic_ostreamIT_T0_EES7_RKNS_8__iom_t6E, symObjAddr: 0xC8, symBinAddr: 0x100003360, symSize: 0x40 }
  - { offsetInCU: 0xFB34, offset: 0xFB34, size: 0x8, addend: 0x0, symName: __ZNSt3__113basic_ostreamIcNS_11char_traitsIcEEElsB7v160006EPFRNS_8ios_baseES5_E, symObjAddr: 0x180, symBinAddr: 0x100003418, symSize: 0x40 }
  - { offsetInCU: 0xFB3C, offset: 0xFB3C, size: 0x8, addend: 0x0, symName: __ZNSt3__14leftB7v160006ERNS_8ios_baseE, symObjAddr: 0x1C0, symBinAddr: 0x100003458, symSize: 0x30 }
  - { offsetInCU: 0xFB79, offset: 0xFB79, size: 0x8, addend: 0x0, symName: __Z13display_maenuv, symObjAddr: 0x1F0, symBinAddr: 0x100003488, symSize: 0xC8 }
  - { offsetInCU: 0xFB81, offset: 0xFB81, size: 0x8, addend: 0x0, symName: __ZNSt3__1lsB7v160006INS_11char_traitsIcEEEERNS_13basic_ostreamIcT_EES6_PKc, symObjAddr: 0x2B8, symBinAddr: 0x100003550, symSize: 0x48 }
  - { offsetInCU: 0xFB98, offset: 0xFB98, size: 0x8, addend: 0x0, symName: __ZNSt3__113basic_ostreamIcNS_11char_traitsIcEEElsB7v160006EPFRS3_S4_E, symObjAddr: 0x300, symBinAddr: 0x100003598, symSize: 0x2C }
  - { offsetInCU: 0xFBA0, offset: 0xFBA0, size: 0x8, addend: 0x0, symName: __ZNSt3__14endlB7v160006IcNS_11char_traitsIcEEEERNS_13basic_ostreamIT_T0_EES7_, symObjAddr: 0x32C, symBinAddr: 0x1000035C4, symSize: 0x58 }
  - { offsetInCU: 0xFBDD, offset: 0xFBDD, size: 0x8, addend: 0x0, symName: __Z17play_current_songRK4Song, symObjAddr: 0x384, symBinAddr: 0x10000361C, symSize: 0x58 }
  - { offsetInCU: 0xFBE5, offset: 0xFBE5, size: 0x8, addend: 0x0, symName: __Z16display_playlistRKNSt3__14listI4SongNS_9allocatorIS1_EEEES1_, symObjAddr: 0x3DC, symBinAddr: 0x100003674, symSize: 0xD4 }
  - { offsetInCU: 0xFC0F, offset: 0xFC0F, size: 0x8, addend: 0x0, symName: __Z16display_playlistRKNSt3__14listI4SongNS_9allocatorIS1_EEEES1_, symObjAddr: 0x3DC, symBinAddr: 0x100003674, symSize: 0xD4 }
  - { offsetInCU: 0xFC17, offset: 0xFC17, size: 0x8, addend: 0x0, symName: __ZNKSt3__14listI4SongNS_9allocatorIS1_EEE5beginB7v160006Ev, symObjAddr: 0x4B0, symBinAddr: 0x100003748, symSize: 0x2C }
  - { offsetInCU: 0x1008D, offset: 0x1008D, size: 0x8, addend: 0x0, symName: __ZNKSt3__14listI4SongNS_9allocatorIS1_EEE5beginB7v160006Ev, symObjAddr: 0x4B0, symBinAddr: 0x100003748, symSize: 0x2C }
  - { offsetInCU: 0x10095, offset: 0x10095, size: 0x8, addend: 0x0, symName: __ZNKSt3__14listI4SongNS_9allocatorIS1_EEE3endB7v160006Ev, symObjAddr: 0x4DC, symBinAddr: 0x100003774, symSize: 0x2C }
  - { offsetInCU: 0x100C0, offset: 0x100C0, size: 0x8, addend: 0x0, symName: __ZNKSt3__14listI4SongNS_9allocatorIS1_EEE3endB7v160006Ev, symObjAddr: 0x4DC, symBinAddr: 0x100003774, symSize: 0x2C }
  - { offsetInCU: 0x100C8, offset: 0x100C8, size: 0x8, addend: 0x0, symName: __ZNSt3__1neB7v160006ERKNS_21__list_const_iteratorI4SongPvEES5_, symObjAddr: 0x508, symBinAddr: 0x1000037A0, symSize: 0x34 }
  - { offsetInCU: 0x100F3, offset: 0x100F3, size: 0x8, addend: 0x0, symName: __ZNKSt3__121__list_const_iteratorI4SongPvEdeB7v160006Ev, symObjAddr: 0x53C, symBinAddr: 0x1000037D4, symSize: 0x2C }
  - { offsetInCU: 0x100FB, offset: 0x100FB, size: 0x8, addend: 0x0, symName: __ZNSt3__121__list_const_iteratorI4SongPvEppB7v160006Ev, symObjAddr: 0x568, symBinAddr: 0x100003800, symSize: 0x20 }
  - { offsetInCU: 0x10126, offset: 0x10126, size: 0x8, addend: 0x0, symName: __ZNSt3__121__list_const_iteratorI4SongPvEppB7v160006Ev, symObjAddr: 0x568, symBinAddr: 0x100003800, symSize: 0x20 }
  - { offsetInCU: 0x1012E, offset: 0x1012E, size: 0x8, addend: 0x0, symName: _main, symObjAddr: 0x588, symBinAddr: 0x100003820, symSize: 0xBE4 }
  - { offsetInCU: 0x1015A, offset: 0x1015A, size: 0x8, addend: 0x0, symName: _main, symObjAddr: 0x588, symBinAddr: 0x100003820, symSize: 0xBE4 }
  - { offsetInCU: 0x10162, offset: 0x10162, size: 0x8, addend: 0x0, symName: __ZNSt3__112basic_stringIcNS_11char_traitsIcEENS_9allocatorIcEEEC1B7v160006IDnEEPKc, symObjAddr: 0x116C, symBinAddr: 0x100004404, symSize: 0x34 }
  - { offsetInCU: 0x10205, offset: 0x10205, size: 0x8, addend: 0x0, symName: __ZNSt3__112basic_stringIcNS_11char_traitsIcEENS_9allocatorIcEEEC1B7v160006IDnEEPKc, symObjAddr: 0x116C, symBinAddr: 0x100004404, symSize: 0x34 }
  - { offsetInCU: 0x1020D, offset: 0x1020D, size: 0x8, addend: 0x0, symName: __ZN4SongC1ENSt3__112basic_stringIcNS0_11char_traitsIcEENS0_9allocatorIcEEEES6_i, symObjAddr: 0x11A0, symBinAddr: 0x100004438, symSize: 0x44 }
  - { offsetInCU: 0x10258, offset: 0x10258, size: 0x8, addend: 0x0, symName: __ZN4SongC1ENSt3__112basic_stringIcNS0_11char_traitsIcEENS0_9allocatorIcEEEES6_i, symObjAddr: 0x11A0, symBinAddr: 0x100004438, symSize: 0x44 }
  - { offsetInCU: 0x10260, offset: 0x10260, size: 0x8, addend: 0x0, symName: __ZNSt3__14listI4SongNS_9allocatorIS1_EEEC1ESt16initializer_listIS1_E, symObjAddr: 0x11E4, symBinAddr: 0x10000447C, symSize: 0x3C }
  - { offsetInCU: 0x102C7, offset: 0x102C7, size: 0x8, addend: 0x0, symName: __ZNSt3__14listI4SongNS_9allocatorIS1_EEEC1ESt16initializer_listIS1_E, symObjAddr: 0x11E4, symBinAddr: 0x10000447C, symSize: 0x3C }
  - { offsetInCU: 0x102CF, offset: 0x102CF, size: 0x8, addend: 0x0, symName: __ZN4SongD1Ev, symObjAddr: 0x1220, symBinAddr: 0x1000044B8, symSize: 0x2C }
  - { offsetInCU: 0x10313, offset: 0x10313, size: 0x8, addend: 0x0, symName: __ZN4SongD1Ev, symObjAddr: 0x1220, symBinAddr: 0x1000044B8, symSize: 0x2C }
  - { offsetInCU: 0x1031B, offset: 0x1031B, size: 0x8, addend: 0x0, symName: __ZNSt3__14listI4SongNS_9allocatorIS1_EEE5beginB7v160006Ev, symObjAddr: 0x124C, symBinAddr: 0x1000044E4, symSize: 0x2C }
  - { offsetInCU: 0x1034C, offset: 0x1034C, size: 0x8, addend: 0x0, symName: __ZNSt3__14listI4SongNS_9allocatorIS1_EEE5beginB7v160006Ev, symObjAddr: 0x124C, symBinAddr: 0x1000044E4, symSize: 0x2C }
  - { offsetInCU: 0x10354, offset: 0x10354, size: 0x8, addend: 0x0, symName: __ZNKSt3__115__list_iteratorI4SongPvEdeB7v160006Ev, symObjAddr: 0x1278, symBinAddr: 0x100004510, symSize: 0x2C }
  - { offsetInCU: 0x1037F, offset: 0x1037F, size: 0x8, addend: 0x0, symName: __ZNKSt3__115__list_iteratorI4SongPvEdeB7v160006Ev, symObjAddr: 0x1278, symBinAddr: 0x100004510, symSize: 0x2C }
  - { offsetInCU: 0x10387, offset: 0x10387, size: 0x8, addend: 0x0, symName: __ZN4SongC1ERKS_, symObjAddr: 0x12A4, symBinAddr: 0x10000453C, symSize: 0x34 }
  - { offsetInCU: 0x103B2, offset: 0x103B2, size: 0x8, addend: 0x0, symName: __ZN4SongC1ERKS_, symObjAddr: 0x12A4, symBinAddr: 0x10000453C, symSize: 0x34 }
  - { offsetInCU: 0x103BA, offset: 0x103BA, size: 0x8, addend: 0x0, symName: __ZNSt3__1rsB7v160006IcNS_11char_traitsIcEEEERNS_13basic_istreamIT_T0_EES7_RS4_, symObjAddr: 0x12D8, symBinAddr: 0x100004570, symSize: 0x190 }
  - { offsetInCU: 0x103F8, offset: 0x103F8, size: 0x8, addend: 0x0, symName: __ZNSt3__115__list_iteratorI4SongPvEppB7v160006Ei, symObjAddr: 0x148C, symBinAddr: 0x100004724, symSize: 0x34 }
  - { offsetInCU: 0x10400, offset: 0x10400, size: 0x8, addend: 0x0, symName: __ZNSt3__1eqB7v160006ERKNS_15__list_iteratorI4SongPvEES5_, symObjAddr: 0x14C0, symBinAddr: 0x100004758, symSize: 0x30 }
  - { offsetInCU: 0x1044E, offset: 0x1044E, size: 0x8, addend: 0x0, symName: __ZNSt3__14listI4SongNS_9allocatorIS1_EEE3endB7v160006Ev, symObjAddr: 0x14F0, symBinAddr: 0x100004788, symSize: 0x2C }
  - { offsetInCU: 0x10456, offset: 0x10456, size: 0x8, addend: 0x0, symName: __ZNSt3__115__list_iteratorI4SongPvEmmB7v160006Ei, symObjAddr: 0x151C, symBinAddr: 0x1000047B4, symSize: 0x34 }
  - { offsetInCU: 0x10481, offset: 0x10481, size: 0x8, addend: 0x0, symName: __ZNSt3__115__list_iteratorI4SongPvEmmB7v160006Ei, symObjAddr: 0x151C, symBinAddr: 0x1000047B4, symSize: 0x34 }
  - { offsetInCU: 0x10489, offset: 0x10489, size: 0x8, addend: 0x0, symName: __ZNSt3__112basic_stringIcNS_11char_traitsIcEENS_9allocatorIcEEEC1B7v160006Ev, symObjAddr: 0x1550, symBinAddr: 0x1000047E8, symSize: 0x2C }
  - { offsetInCU: 0x104D7, offset: 0x104D7, size: 0x8, addend: 0x0, symName: __ZNSt3__112basic_stringIcNS_11char_traitsIcEENS_9allocatorIcEEEC1B7v160006Ev, symObjAddr: 0x1550, symBinAddr: 0x1000047E8, symSize: 0x2C }
  - { offsetInCU: 0x104DF, offset: 0x104DF, size: 0x8, addend: 0x0, symName: __ZNSt3__19basic_iosIcNS_11char_traitsIcEEE5clearB7v160006Ej, symObjAddr: 0x157C, symBinAddr: 0x100004814, symSize: 0x2C }
  - { offsetInCU: 0x1050E, offset: 0x1050E, size: 0x8, addend: 0x0, symName: __ZNSt3__19basic_iosIcNS_11char_traitsIcEEE5clearB7v160006Ej, symObjAddr: 0x157C, symBinAddr: 0x100004814, symSize: 0x2C }
  - { offsetInCU: 0x10516, offset: 0x10516, size: 0x8, addend: 0x0, symName: __ZNSt3__114numeric_limitsIlE3maxB7v160006Ev, symObjAddr: 0x15A8, symBinAddr: 0x100004840, symSize: 0x14 }
  - { offsetInCU: 0x10554, offset: 0x10554, size: 0x8, addend: 0x0, symName: __ZNSt3__114numeric_limitsIlE3maxB7v160006Ev, symObjAddr: 0x15A8, symBinAddr: 0x100004840, symSize: 0x14 }
  - { offsetInCU: 0x1055C, offset: 0x1055C, size: 0x8, addend: 0x0, symName: __ZNSt3__17getlineB7v160006IcNS_11char_traitsIcEENS_9allocatorIcEEEERNS_13basic_istreamIT_T0_EES9_RNS_12basic_stringIS6_S7_T1_EE, symObjAddr: 0x15BC, symBinAddr: 0x100004854, symSize: 0x5C }
  - { offsetInCU: 0x10570, offset: 0x10570, size: 0x8, addend: 0x0, symName: __ZNSt3__14listI4SongNS_9allocatorIS1_EEE6insertENS_21__list_const_iteratorIS1_PvEEOS1_, symObjAddr: 0x1618, symBinAddr: 0x1000048B0, symSize: 0xF4 }
  - { offsetInCU: 0x10578, offset: 0x10578, size: 0x8, addend: 0x0, symName: __ZNSt3__121__list_const_iteratorI4SongPvEC1B7v160006ERKNS_15__list_iteratorIS1_S2_EE, symObjAddr: 0x170C, symBinAddr: 0x1000049A4, symSize: 0x34 }
  - { offsetInCU: 0x10605, offset: 0x10605, size: 0x8, addend: 0x0, symName: __ZNSt3__121__list_const_iteratorI4SongPvEC1B7v160006ERKNS_15__list_iteratorIS1_S2_EE, symObjAddr: 0x170C, symBinAddr: 0x1000049A4, symSize: 0x34 }
  - { offsetInCU: 0x1060D, offset: 0x1060D, size: 0x8, addend: 0x0, symName: __ZNSt3__14listI4SongNS_9allocatorIS1_EEED1Ev, symObjAddr: 0x1740, symBinAddr: 0x1000049D8, symSize: 0x2C }
  - { offsetInCU: 0x1064F, offset: 0x1064F, size: 0x8, addend: 0x0, symName: __ZNSt3__14listI4SongNS_9allocatorIS1_EEED1Ev, symObjAddr: 0x1740, symBinAddr: 0x1000049D8, symSize: 0x2C }
  - { offsetInCU: 0x10657, offset: 0x10657, size: 0x8, addend: 0x0, symName: __ZNSt3__18__iom_t6C1B7v160006Ei, symObjAddr: 0x176C, symBinAddr: 0x100004A04, symSize: 0x34 }
  - { offsetInCU: 0x10689, offset: 0x10689, size: 0x8, addend: 0x0, symName: __ZNSt3__18__iom_t6C1B7v160006Ei, symObjAddr: 0x176C, symBinAddr: 0x100004A04, symSize: 0x34 }
  - { offsetInCU: 0x10691, offset: 0x10691, size: 0x8, addend: 0x0, symName: __ZNSt3__18__iom_t6C2B7v160006Ei, symObjAddr: 0x17A0, symBinAddr: 0x100004A38, symSize: 0x20 }
  - { offsetInCU: 0x106D2, offset: 0x106D2, size: 0x8, addend: 0x0, symName: __ZNSt3__18__iom_t6C2B7v160006Ei, symObjAddr: 0x17A0, symBinAddr: 0x100004A38, symSize: 0x20 }
  - { offsetInCU: 0x106DA, offset: 0x106DA, size: 0x8, addend: 0x0, symName: __ZNSt3__18ios_base4setfB7v160006Ejj, symObjAddr: 0x17C0, symBinAddr: 0x100004A58, symSize: 0x5C }
  - { offsetInCU: 0x1071C, offset: 0x1071C, size: 0x8, addend: 0x0, symName: __ZNSt3__18ios_base4setfB7v160006Ejj, symObjAddr: 0x17C0, symBinAddr: 0x100004A58, symSize: 0x5C }
  - { offsetInCU: 0x10724, offset: 0x10724, size: 0x8, addend: 0x0, symName: __ZNSt3__18ios_base6unsetfB7v160006Ej, symObjAddr: 0x181C, symBinAddr: 0x100004AB4, symSize: 0x28 }
  - { offsetInCU: 0x1078A, offset: 0x1078A, size: 0x8, addend: 0x0, symName: __ZNSt3__18ios_base6unsetfB7v160006Ej, symObjAddr: 0x181C, symBinAddr: 0x100004AB4, symSize: 0x28 }
  - { offsetInCU: 0x10792, offset: 0x10792, size: 0x8, addend: 0x0, symName: __ZN4SongC2ENSt3__112basic_stringIcNS0_11char_traitsIcEENS0_9allocatorIcEEEES6_i, symObjAddr: 0x1844, symBinAddr: 0x100004ADC, symSize: 0x80 }
  - { offsetInCU: 0x107D3, offset: 0x107D3, size: 0x8, addend: 0x0, symName: __ZN4SongC2ENSt3__112basic_stringIcNS0_11char_traitsIcEENS0_9allocatorIcEEEES6_i, symObjAddr: 0x1844, symBinAddr: 0x100004ADC, symSize: 0x80 }
  - { offsetInCU: 0x107DB, offset: 0x107DB, size: 0x8, addend: 0x0, symName: __ZN4SongD2Ev, symObjAddr: 0x18C4, symBinAddr: 0x100004B5C, symSize: 0x38 }
  - { offsetInCU: 0x10842, offset: 0x10842, size: 0x8, addend: 0x0, symName: __ZN4SongD2Ev, symObjAddr: 0x18C4, symBinAddr: 0x100004B5C, symSize: 0x38 }
  - { offsetInCU: 0x1084A, offset: 0x1084A, size: 0x8, addend: 0x0, symName: __ZN4SongC2ERKS_, symObjAddr: 0x18FC, symBinAddr: 0x100004B94, symSize: 0x7C }
  - { offsetInCU: 0x1087B, offset: 0x1087B, size: 0x8, addend: 0x0, symName: __ZN4SongC2ERKS_, symObjAddr: 0x18FC, symBinAddr: 0x100004B94, symSize: 0x7C }
  - { offsetInCU: 0x10883, offset: 0x10883, size: 0x8, addend: 0x0, symName: __ZNSt3__123__libcpp_numeric_limitsIlLb1EE3maxB7v160006Ev, symObjAddr: 0x1978, symBinAddr: 0x100004C10, symSize: 0x8 }
  - { offsetInCU: 0x108C1, offset: 0x108C1, size: 0x8, addend: 0x0, symName: __ZNSt3__123__libcpp_numeric_limitsIlLb1EE3maxB7v160006Ev, symObjAddr: 0x1978, symBinAddr: 0x100004C10, symSize: 0x8 }
  - { offsetInCU: 0x108C9, offset: 0x108C9, size: 0x8, addend: 0x0, symName: __ZNSt3__14listI4SongNS_9allocatorIS1_EEED2Ev, symObjAddr: 0x1980, symBinAddr: 0x100004C18, symSize: 0x2C }
  - { offsetInCU: 0x108DE, offset: 0x108DE, size: 0x8, addend: 0x0, symName: __ZNSt3__14listI4SongNS_9allocatorIS1_EEED2Ev, symObjAddr: 0x1980, symBinAddr: 0x100004C18, symSize: 0x2C }
  - { offsetInCU: 0x108E6, offset: 0x108E6, size: 0x8, addend: 0x0, symName: __ZNSt3__110__list_impI4SongNS_9allocatorIS1_EEED2Ev, symObjAddr: 0x19AC, symBinAddr: 0x100004C44, symSize: 0x3C }
  - { offsetInCU: 0x10918, offset: 0x10918, size: 0x8, addend: 0x0, symName: __ZNSt3__110__list_impI4SongNS_9allocatorIS1_EEED2Ev, symObjAddr: 0x19AC, symBinAddr: 0x100004C44, symSize: 0x3C }
  - { offsetInCU: 0x10920, offset: 0x10920, size: 0x8, addend: 0x0, symName: __ZNSt3__110__list_impI4SongNS_9allocatorIS1_EEE5clearEv, symObjAddr: 0x19E8, symBinAddr: 0x100004C80, symSize: 0xEC }
  - { offsetInCU: 0x10951, offset: 0x10951, size: 0x8, addend: 0x0, symName: __ZNSt3__110__list_impI4SongNS_9allocatorIS1_EEE5clearEv, symObjAddr: 0x19E8, symBinAddr: 0x100004C80, symSize: 0xEC }
  - { offsetInCU: 0x10959, offset: 0x10959, size: 0x8, addend: 0x0, symName: __ZNSt3__118__debug_db_erase_cB7v160006INS_10__list_impI4SongNS_9allocatorIS2_EEEEEEvPT_, symObjAddr: 0x1AD4, symBinAddr: 0x100004D6C, symSize: 0x10 }
  - { offsetInCU: 0x109DE, offset: 0x109DE, size: 0x8, addend: 0x0, symName: __ZNKSt3__110__list_impI4SongNS_9allocatorIS1_EEE5emptyB7v160006Ev, symObjAddr: 0x1AF0, symBinAddr: 0x100004D88, symSize: 0x34 }
  - { offsetInCU: 0x109E6, offset: 0x109E6, size: 0x8, addend: 0x0, symName: __ZNSt3__110__list_impI4SongNS_9allocatorIS1_EEE12__node_allocB7v160006Ev, symObjAddr: 0x1B24, symBinAddr: 0x100004DBC, symSize: 0x28 }
  - { offsetInCU: 0x10A11, offset: 0x10A11, size: 0x8, addend: 0x0, symName: __ZNSt3__110__list_impI4SongNS_9allocatorIS1_EEE12__node_allocB7v160006Ev, symObjAddr: 0x1B24, symBinAddr: 0x100004DBC, symSize: 0x28 }
  - { offsetInCU: 0x10A19, offset: 0x10A19, size: 0x8, addend: 0x0, symName: __ZNKSt3__110__list_impI4SongNS_9allocatorIS1_EEE13__end_as_linkB7v160006Ev, symObjAddr: 0x1B4C, symBinAddr: 0x100004DE4, symSize: 0x44 }
  - { offsetInCU: 0x10A44, offset: 0x10A44, size: 0x8, addend: 0x0, symName: __ZNKSt3__110__list_impI4SongNS_9allocatorIS1_EEE13__end_as_linkB7v160006Ev, symObjAddr: 0x1B4C, symBinAddr: 0x100004DE4, symSize: 0x44 }
  - { offsetInCU: 0x10A4C, offset: 0x10A4C, size: 0x8, addend: 0x0, symName: __ZNSt3__110__list_impI4SongNS_9allocatorIS1_EEE14__unlink_nodesEPNS_16__list_node_baseIS1_PvEES8_, symObjAddr: 0x1B90, symBinAddr: 0x100004E28, symSize: 0x3C }
  - { offsetInCU: 0x10A77, offset: 0x10A77, size: 0x8, addend: 0x0, symName: __ZNSt3__110__list_impI4SongNS_9allocatorIS1_EEE14__unlink_nodesEPNS_16__list_node_baseIS1_PvEES8_, symObjAddr: 0x1B90, symBinAddr: 0x100004E28, symSize: 0x3C }
  - { offsetInCU: 0x10A7F, offset: 0x10A7F, size: 0x8, addend: 0x0, symName: __ZNSt3__110__list_impI4SongNS_9allocatorIS1_EEE4__szB7v160006Ev, symObjAddr: 0x1BCC, symBinAddr: 0x100004E64, symSize: 0x28 }
  - { offsetInCU: 0x10ABD, offset: 0x10ABD, size: 0x8, addend: 0x0, symName: __ZNSt3__110__list_impI4SongNS_9allocatorIS1_EEE4__szB7v160006Ev, symObjAddr: 0x1BCC, symBinAddr: 0x100004E64, symSize: 0x28 }
  - { offsetInCU: 0x10AC5, offset: 0x10AC5, size: 0x8, addend: 0x0, symName: __ZNSt3__116__list_node_baseI4SongPvE9__as_nodeB7v160006Ev, symObjAddr: 0x1BF4, symBinAddr: 0x100004E8C, symSize: 0x24 }
  - { offsetInCU: 0x10AF0, offset: 0x10AF0, size: 0x8, addend: 0x0, symName: __ZNSt3__116__list_node_baseI4SongPvE9__as_nodeB7v160006Ev, symObjAddr: 0x1BF4, symBinAddr: 0x100004E8C, symSize: 0x24 }
  - { offsetInCU: 0x10AF8, offset: 0x10AF8, size: 0x8, addend: 0x0, symName: __ZNSt3__116allocator_traitsINS_9allocatorINS_11__list_nodeI4SongPvEEEEE7destroyB7v160006IS3_vvEEvRS6_PT_, symObjAddr: 0x1C18, symBinAddr: 0x100004EB0, symSize: 0x28 }
  - { offsetInCU: 0x10B23, offset: 0x10B23, size: 0x8, addend: 0x0, symName: __ZNSt3__116allocator_traitsINS_9allocatorINS_11__list_nodeI4SongPvEEEEE7destroyB7v160006IS3_vvEEvRS6_PT_, symObjAddr: 0x1C18, symBinAddr: 0x100004EB0, symSize: 0x28 }
  - { offsetInCU: 0x10B2B, offset: 0x10B2B, size: 0x8, addend: 0x0, symName: __ZNSt3__116allocator_traitsINS_9allocatorINS_11__list_nodeI4SongPvEEEEE10deallocateB7v160006ERS6_PS5_m, symObjAddr: 0x1C40, symBinAddr: 0x100004ED8, symSize: 0x34 }
  - { offsetInCU: 0x10B72, offset: 0x10B72, size: 0x8, addend: 0x0, symName: __ZNSt3__116allocator_traitsINS_9allocatorINS_11__list_nodeI4SongPvEEEEE10deallocateB7v160006ERS6_PS5_m, symObjAddr: 0x1C40, symBinAddr: 0x100004ED8, symSize: 0x34 }
  - { offsetInCU: 0x10B7A, offset: 0x10B7A, size: 0x8, addend: 0x0, symName: __ZNSt3__125__debug_db_invalidate_allB7v160006INS_10__list_impI4SongNS_9allocatorIS2_EEEEEEvPT_, symObjAddr: 0x1C74, symBinAddr: 0x100004F0C, symSize: 0x10 }
  - { offsetInCU: 0x10BC8, offset: 0x10BC8, size: 0x8, addend: 0x0, symName: __ZNKSt3__110__list_impI4SongNS_9allocatorIS1_EEE4__szB7v160006Ev, symObjAddr: 0x1C84, symBinAddr: 0x100004F1C, symSize: 0x28 }
  - { offsetInCU: 0x10BD0, offset: 0x10BD0, size: 0x8, addend: 0x0, symName: __ZNKSt3__117__compressed_pairImNS_9allocatorINS_11__list_nodeI4SongPvEEEEE5firstB7v160006Ev, symObjAddr: 0x1CAC, symBinAddr: 0x100004F44, symSize: 0x24 }
  - { offsetInCU: 0x10BFB, offset: 0x10BFB, size: 0x8, addend: 0x0, symName: __ZNKSt3__117__compressed_pairImNS_9allocatorINS_11__list_nodeI4SongPvEEEEE5firstB7v160006Ev, symObjAddr: 0x1CAC, symBinAddr: 0x100004F44, symSize: 0x24 }
  - { offsetInCU: 0x10C03, offset: 0x10C03, size: 0x8, addend: 0x0, symName: __ZNKSt3__122__compressed_pair_elemImLi0ELb0EE5__getB7v160006Ev, symObjAddr: 0x1CD0, symBinAddr: 0x100004F68, symSize: 0x14 }
  - { offsetInCU: 0x10C2E, offset: 0x10C2E, size: 0x8, addend: 0x0, symName: __ZNKSt3__122__compressed_pair_elemImLi0ELb0EE5__getB7v160006Ev, symObjAddr: 0x1CD0, symBinAddr: 0x100004F68, symSize: 0x14 }
  - { offsetInCU: 0x10C36, offset: 0x10C36, size: 0x8, addend: 0x0, symName: __ZNSt3__117__compressed_pairImNS_9allocatorINS_11__list_nodeI4SongPvEEEEE6secondB7v160006Ev, symObjAddr: 0x1CE4, symBinAddr: 0x100004F7C, symSize: 0x24 }
  - { offsetInCU: 0x10C62, offset: 0x10C62, size: 0x8, addend: 0x0, symName: __ZNSt3__117__compressed_pairImNS_9allocatorINS_11__list_nodeI4SongPvEEEEE6secondB7v160006Ev, symObjAddr: 0x1CE4, symBinAddr: 0x100004F7C, symSize: 0x24 }
  - { offsetInCU: 0x10C6A, offset: 0x10C6A, size: 0x8, addend: 0x0, symName: __ZNSt3__122__compressed_pair_elemINS_9allocatorINS_11__list_nodeI4SongPvEEEELi1ELb1EE5__getB7v160006Ev, symObjAddr: 0x1D08, symBinAddr: 0x100004FA0, symSize: 0x14 }
  - { offsetInCU: 0x10C95, offset: 0x10C95, size: 0x8, addend: 0x0, symName: __ZNSt3__122__compressed_pair_elemINS_9allocatorINS_11__list_nodeI4SongPvEEEELi1ELb1EE5__getB7v160006Ev, symObjAddr: 0x1D08, symBinAddr: 0x100004FA0, symSize: 0x14 }
  - { offsetInCU: 0x10C9D, offset: 0x10C9D, size: 0x8, addend: 0x0, symName: __ZNSt3__126__list_node_pointer_traitsI4SongPvE26__unsafe_link_pointer_castB7v160006EPNS_16__list_node_baseIS1_S2_EE, symObjAddr: 0x1D1C, symBinAddr: 0x100004FB4, symSize: 0x14 }
  - { offsetInCU: 0x10CC9, offset: 0x10CC9, size: 0x8, addend: 0x0, symName: __ZNSt3__126__list_node_pointer_traitsI4SongPvE26__unsafe_link_pointer_castB7v160006EPNS_16__list_node_baseIS1_S2_EE, symObjAddr: 0x1D1C, symBinAddr: 0x100004FB4, symSize: 0x14 }
  - { offsetInCU: 0x10CD1, offset: 0x10CD1, size: 0x8, addend: 0x0, symName: __ZNSt3__116__list_node_baseI4SongPvE6__selfB7v160006Ev, symObjAddr: 0x1D30, symBinAddr: 0x100004FC8, symSize: 0x24 }
  - { offsetInCU: 0x10CFA, offset: 0x10CFA, size: 0x8, addend: 0x0, symName: __ZNSt3__116__list_node_baseI4SongPvE6__selfB7v160006Ev, symObjAddr: 0x1D30, symBinAddr: 0x100004FC8, symSize: 0x24 }
  - { offsetInCU: 0x10D02, offset: 0x10D02, size: 0x8, addend: 0x0, symName: __ZNSt3__114pointer_traitsIPNS_16__list_node_baseI4SongPvEEE10pointer_toB7v160006ERS4_, symObjAddr: 0x1D54, symBinAddr: 0x100004FEC, symSize: 0x14 }
  - { offsetInCU: 0x10D36, offset: 0x10D36, size: 0x8, addend: 0x0, symName: __ZNSt3__114pointer_traitsIPNS_16__list_node_baseI4SongPvEEE10pointer_toB7v160006ERS4_, symObjAddr: 0x1D54, symBinAddr: 0x100004FEC, symSize: 0x14 }
  - { offsetInCU: 0x10D3E, offset: 0x10D3E, size: 0x8, addend: 0x0, symName: __ZNSt3__117__compressed_pairImNS_9allocatorINS_11__list_nodeI4SongPvEEEEE5firstB7v160006Ev, symObjAddr: 0x1D68, symBinAddr: 0x100005000, symSize: 0x24 }
  - { offsetInCU: 0x10D66, offset: 0x10D66, size: 0x8, addend: 0x0, symName: __ZNSt3__117__compressed_pairImNS_9allocatorINS_11__list_nodeI4SongPvEEEEE5firstB7v160006Ev, symObjAddr: 0x1D68, symBinAddr: 0x100005000, symSize: 0x24 }
  - { offsetInCU: 0x10D6E, offset: 0x10D6E, size: 0x8, addend: 0x0, symName: __ZNSt3__122__compressed_pair_elemImLi0ELb0EE5__getB7v160006Ev, symObjAddr: 0x1D8C, symBinAddr: 0x100005024, symSize: 0x14 }
  - { offsetInCU: 0x10D99, offset: 0x10D99, size: 0x8, addend: 0x0, symName: __ZNSt3__122__compressed_pair_elemImLi0ELb0EE5__getB7v160006Ev, symObjAddr: 0x1D8C, symBinAddr: 0x100005024, symSize: 0x14 }
  - { offsetInCU: 0x10DA1, offset: 0x10DA1, size: 0x8, addend: 0x0, symName: __ZNSt3__19allocatorINS_11__list_nodeI4SongPvEEE10deallocateB7v160006EPS4_m, symObjAddr: 0x1DA0, symBinAddr: 0x100005038, symSize: 0x44 }
  - { offsetInCU: 0x10DCD, offset: 0x10DCD, size: 0x8, addend: 0x0, symName: __ZNSt3__19allocatorINS_11__list_nodeI4SongPvEEE10deallocateB7v160006EPS4_m, symObjAddr: 0x1DA0, symBinAddr: 0x100005038, symSize: 0x44 }
  - { offsetInCU: 0x10DD5, offset: 0x10DD5, size: 0x8, addend: 0x0, symName: __ZNSt3__119__libcpp_deallocateB7v160006EPvmm, symObjAddr: 0x1DE4, symBinAddr: 0x10000507C, symSize: 0x60 }
  - { offsetInCU: 0x10E24, offset: 0x10E24, size: 0x8, addend: 0x0, symName: __ZNSt3__18ios_base5widthB7v160006El, symObjAddr: 0x1F0C, symBinAddr: 0x1000051A4, symSize: 0x2C }
  - { offsetInCU: 0x10E2C, offset: 0x10E2C, size: 0x8, addend: 0x0, symName: __ZNSt3__124__put_character_sequenceB7v160006IcNS_11char_traitsIcEEEERNS_13basic_ostreamIT_T0_EES7_PKS4_m, symObjAddr: 0x1F38, symBinAddr: 0x1000051D0, symSize: 0x1EC }
  - { offsetInCU: 0x10E80, offset: 0x10E80, size: 0x8, addend: 0x0, symName: __ZNKSt3__112basic_stringIcNS_11char_traitsIcEENS_9allocatorIcEEE4dataB7v160006Ev, symObjAddr: 0x2124, symBinAddr: 0x1000053BC, symSize: 0x28 }
  - { offsetInCU: 0x10E88, offset: 0x10E88, size: 0x8, addend: 0x0, symName: __ZNKSt3__112basic_stringIcNS_11char_traitsIcEENS_9allocatorIcEEE4sizeB7v160006Ev, symObjAddr: 0x214C, symBinAddr: 0x1000053E4, symSize: 0x54 }
  - { offsetInCU: 0x10EB3, offset: 0x10EB3, size: 0x8, addend: 0x0, symName: __ZNKSt3__112basic_stringIcNS_11char_traitsIcEENS_9allocatorIcEEE4sizeB7v160006Ev, symObjAddr: 0x214C, symBinAddr: 0x1000053E4, symSize: 0x54 }
  - { offsetInCU: 0x10EBB, offset: 0x10EBB, size: 0x8, addend: 0x0, symName: __ZNKSt3__113basic_ostreamIcNS_11char_traitsIcEEE6sentrycvbB7v160006Ev, symObjAddr: 0x21A0, symBinAddr: 0x100005438, symSize: 0x1C }
  - { offsetInCU: 0x10F1C, offset: 0x10F1C, size: 0x8, addend: 0x0, symName: __ZNKSt3__113basic_ostreamIcNS_11char_traitsIcEEE6sentrycvbB7v160006Ev, symObjAddr: 0x21A0, symBinAddr: 0x100005438, symSize: 0x1C }
  - { offsetInCU: 0x10F24, offset: 0x10F24, size: 0x8, addend: 0x0, symName: __ZNSt3__116__pad_and_outputB7v160006IcNS_11char_traitsIcEEEENS_19ostreambuf_iteratorIT_T0_EES6_PKS4_S8_S8_RNS_8ios_baseES4_, symObjAddr: 0x21BC, symBinAddr: 0x100005454, symSize: 0x240 }
  - { offsetInCU: 0x10F50, offset: 0x10F50, size: 0x8, addend: 0x0, symName: __ZNSt3__119ostreambuf_iteratorIcNS_11char_traitsIcEEEC1B7v160006ERNS_13basic_ostreamIcS2_EE, symObjAddr: 0x23FC, symBinAddr: 0x100005694, symSize: 0x34 }
  - { offsetInCU: 0x10F58, offset: 0x10F58, size: 0x8, addend: 0x0, symName: __ZNKSt3__18ios_base5flagsB7v160006Ev, symObjAddr: 0x2430, symBinAddr: 0x1000056C8, symSize: 0x18 }
  - { offsetInCU: 0x10F99, offset: 0x10F99, size: 0x8, addend: 0x0, symName: __ZNKSt3__18ios_base5flagsB7v160006Ev, symObjAddr: 0x2430, symBinAddr: 0x1000056C8, symSize: 0x18 }
  - { offsetInCU: 0x10FA1, offset: 0x10FA1, size: 0x8, addend: 0x0, symName: __ZNKSt3__19basic_iosIcNS_11char_traitsIcEEE4fillB7v160006Ev, symObjAddr: 0x2448, symBinAddr: 0x1000056E0, symSize: 0x64 }
  - { offsetInCU: 0x10FCF, offset: 0x10FCF, size: 0x8, addend: 0x0, symName: __ZNKSt3__19basic_iosIcNS_11char_traitsIcEEE4fillB7v160006Ev, symObjAddr: 0x2448, symBinAddr: 0x1000056E0, symSize: 0x64 }
  - { offsetInCU: 0x10FD7, offset: 0x10FD7, size: 0x8, addend: 0x0, symName: __ZNKSt3__119ostreambuf_iteratorIcNS_11char_traitsIcEEE6failedB7v160006Ev, symObjAddr: 0x24AC, symBinAddr: 0x100005744, symSize: 0x24 }
  - { offsetInCU: 0x11004, offset: 0x11004, size: 0x8, addend: 0x0, symName: __ZNKSt3__119ostreambuf_iteratorIcNS_11char_traitsIcEEE6failedB7v160006Ev, symObjAddr: 0x24AC, symBinAddr: 0x100005744, symSize: 0x24 }
  - { offsetInCU: 0x1100C, offset: 0x1100C, size: 0x8, addend: 0x0, symName: __ZNSt3__19basic_iosIcNS_11char_traitsIcEEE8setstateB7v160006Ej, symObjAddr: 0x24D0, symBinAddr: 0x100005768, symSize: 0x2C }
  - { offsetInCU: 0x11038, offset: 0x11038, size: 0x8, addend: 0x0, symName: __ZNSt3__19basic_iosIcNS_11char_traitsIcEEE8setstateB7v160006Ej, symObjAddr: 0x24D0, symBinAddr: 0x100005768, symSize: 0x2C }
  - { offsetInCU: 0x11040, offset: 0x11040, size: 0x8, addend: 0x0, symName: __ZNKSt3__18ios_base5widthB7v160006Ev, symObjAddr: 0x24FC, symBinAddr: 0x100005794, symSize: 0x18 }
  - { offsetInCU: 0x1107E, offset: 0x1107E, size: 0x8, addend: 0x0, symName: __ZNKSt3__18ios_base5widthB7v160006Ev, symObjAddr: 0x24FC, symBinAddr: 0x100005794, symSize: 0x18 }
  - { offsetInCU: 0x11086, offset: 0x11086, size: 0x8, addend: 0x0, symName: __ZNSt3__115basic_streambufIcNS_11char_traitsIcEEE5sputnB7v160006EPKcl, symObjAddr: 0x2514, symBinAddr: 0x1000057AC, symSize: 0x3C }
  - { offsetInCU: 0x110B4, offset: 0x110B4, size: 0x8, addend: 0x0, symName: __ZNSt3__115basic_streambufIcNS_11char_traitsIcEEE5sputnB7v160006EPKcl, symObjAddr: 0x2514, symBinAddr: 0x1000057AC, symSize: 0x3C }
  - { offsetInCU: 0x110BC, offset: 0x110BC, size: 0x8, addend: 0x0, symName: __ZNSt3__112basic_stringIcNS_11char_traitsIcEENS_9allocatorIcEEEC1B7v160006Emc, symObjAddr: 0x2550, symBinAddr: 0x1000057E8, symSize: 0x3C }
  - { offsetInCU: 0x1110B, offset: 0x1110B, size: 0x8, addend: 0x0, symName: __ZNSt3__112basic_stringIcNS_11char_traitsIcEENS_9allocatorIcEEEC1B7v160006Emc, symObjAddr: 0x2550, symBinAddr: 0x1000057E8, symSize: 0x3C }
  - { offsetInCU: 0x11113, offset: 0x11113, size: 0x8, addend: 0x0, symName: __ZNSt3__112basic_stringIcNS_11char_traitsIcEENS_9allocatorIcEEE4dataB7v160006Ev, symObjAddr: 0x258C, symBinAddr: 0x100005824, symSize: 0x28 }
  - { offsetInCU: 0x11168, offset: 0x11168, size: 0x8, addend: 0x0, symName: __ZNSt3__112basic_stringIcNS_11char_traitsIcEENS_9allocatorIcEEE4dataB7v160006Ev, symObjAddr: 0x258C, symBinAddr: 0x100005824, symSize: 0x28 }
  - { offsetInCU: 0x11170, offset: 0x11170, size: 0x8, addend: 0x0, symName: __ZNSt3__112basic_stringIcNS_11char_traitsIcEENS_9allocatorIcEEEC2B7v160006Emc, symObjAddr: 0x25B4, symBinAddr: 0x10000584C, symSize: 0x54 }
  - { offsetInCU: 0x1119B, offset: 0x1119B, size: 0x8, addend: 0x0, symName: __ZNSt3__112basic_stringIcNS_11char_traitsIcEENS_9allocatorIcEEEC2B7v160006Emc, symObjAddr: 0x25B4, symBinAddr: 0x10000584C, symSize: 0x54 }
  - { offsetInCU: 0x111A3, offset: 0x111A3, size: 0x8, addend: 0x0, symName: __ZNSt3__117__compressed_pairINS_12basic_stringIcNS_11char_traitsIcEENS_9allocatorIcEEE5__repES5_EC1B7v160006INS_18__default_init_tagESA_EEOT_OT0_, symObjAddr: 0x2608, symBinAddr: 0x1000058A0, symSize: 0x3C }
  - { offsetInCU: 0x11201, offset: 0x11201, size: 0x8, addend: 0x0, symName: __ZNSt3__117__compressed_pairINS_12basic_stringIcNS_11char_traitsIcEENS_9allocatorIcEEE5__repES5_EC1B7v160006INS_18__default_init_tagESA_EEOT_OT0_, symObjAddr: 0x2608, symBinAddr: 0x1000058A0, symSize: 0x3C }
  - { offsetInCU: 0x11209, offset: 0x11209, size: 0x8, addend: 0x0, symName: __ZNSt3__119__debug_db_insert_cB7v160006INS_12basic_stringIcNS_11char_traitsIcEENS_9allocatorIcEEEEEEvPT_, symObjAddr: 0x2644, symBinAddr: 0x1000058DC, symSize: 0x10 }
  - { offsetInCU: 0x11276, offset: 0x11276, size: 0x8, addend: 0x0, symName: __ZNSt3__117__compressed_pairINS_12basic_stringIcNS_11char_traitsIcEENS_9allocatorIcEEE5__repES5_EC2B7v160006INS_18__default_init_tagESA_EEOT_OT0_, symObjAddr: 0x2654, symBinAddr: 0x1000058EC, symSize: 0x3C }
  - { offsetInCU: 0x1127E, offset: 0x1127E, size: 0x8, addend: 0x0, symName: __ZNSt3__122__compressed_pair_elemINS_12basic_stringIcNS_11char_traitsIcEENS_9allocatorIcEEE5__repELi0ELb0EEC2B7v160006ENS_18__default_init_tagE, symObjAddr: 0x2690, symBinAddr: 0x100005928, symSize: 0x14 }
  - { offsetInCU: 0x112EB, offset: 0x112EB, size: 0x8, addend: 0x0, symName: __ZNSt3__122__compressed_pair_elemINS_12basic_stringIcNS_11char_traitsIcEENS_9allocatorIcEEE5__repELi0ELb0EEC2B7v160006ENS_18__default_init_tagE, symObjAddr: 0x2690, symBinAddr: 0x100005928, symSize: 0x14 }
  - { offsetInCU: 0x112F3, offset: 0x112F3, size: 0x8, addend: 0x0, symName: __ZNSt3__122__compressed_pair_elemINS_9allocatorIcEELi1ELb1EEC2B7v160006ENS_18__default_init_tagE, symObjAddr: 0x26A4, symBinAddr: 0x10000593C, symSize: 0x2C }
  - { offsetInCU: 0x11332, offset: 0x11332, size: 0x8, addend: 0x0, symName: __ZNSt3__122__compressed_pair_elemINS_9allocatorIcEELi1ELb1EEC2B7v160006ENS_18__default_init_tagE, symObjAddr: 0x26A4, symBinAddr: 0x10000593C, symSize: 0x2C }
  - { offsetInCU: 0x1133A, offset: 0x1133A, size: 0x8, addend: 0x0, symName: __ZNSt3__19allocatorIcEC2B7v160006Ev, symObjAddr: 0x26D0, symBinAddr: 0x100005968, symSize: 0x2C }
  - { offsetInCU: 0x11378, offset: 0x11378, size: 0x8, addend: 0x0, symName: __ZNSt3__19allocatorIcEC2B7v160006Ev, symObjAddr: 0x26D0, symBinAddr: 0x100005968, symSize: 0x2C }
  - { offsetInCU: 0x11380, offset: 0x11380, size: 0x8, addend: 0x0, symName: __ZNSt3__116__non_trivial_ifILb1ENS_9allocatorIcEEEC2B7v160006Ev, symObjAddr: 0x26FC, symBinAddr: 0x100005994, symSize: 0x14 }
  - { offsetInCU: 0x113AF, offset: 0x113AF, size: 0x8, addend: 0x0, symName: __ZNSt3__116__non_trivial_ifILb1ENS_9allocatorIcEEEC2B7v160006Ev, symObjAddr: 0x26FC, symBinAddr: 0x100005994, symSize: 0x14 }
  - { offsetInCU: 0x113B7, offset: 0x113B7, size: 0x8, addend: 0x0, symName: __ZNSt3__112__to_addressB7v160006IcEEPT_S2_, symObjAddr: 0x2710, symBinAddr: 0x1000059A8, symSize: 0x14 }
  - { offsetInCU: 0x113E7, offset: 0x113E7, size: 0x8, addend: 0x0, symName: __ZNSt3__112basic_stringIcNS_11char_traitsIcEENS_9allocatorIcEEE13__get_pointerB7v160006Ev, symObjAddr: 0x2724, symBinAddr: 0x1000059BC, symSize: 0x54 }
  - { offsetInCU: 0x113EF, offset: 0x113EF, size: 0x8, addend: 0x0, symName: __ZNKSt3__112basic_stringIcNS_11char_traitsIcEENS_9allocatorIcEEE9__is_longB7v160006Ev, symObjAddr: 0x2778, symBinAddr: 0x100005A10, symSize: 0x38 }
  - { offsetInCU: 0x1141A, offset: 0x1141A, size: 0x8, addend: 0x0, symName: __ZNKSt3__112basic_stringIcNS_11char_traitsIcEENS_9allocatorIcEEE9__is_longB7v160006Ev, symObjAddr: 0x2778, symBinAddr: 0x100005A10, symSize: 0x38 }
  - { offsetInCU: 0x11422, offset: 0x11422, size: 0x8, addend: 0x0, symName: __ZNSt3__112basic_stringIcNS_11char_traitsIcEENS_9allocatorIcEEE18__get_long_pointerB7v160006Ev, symObjAddr: 0x27B0, symBinAddr: 0x100005A48, symSize: 0x28 }
  - { offsetInCU: 0x1144D, offset: 0x1144D, size: 0x8, addend: 0x0, symName: __ZNSt3__112basic_stringIcNS_11char_traitsIcEENS_9allocatorIcEEE18__get_long_pointerB7v160006Ev, symObjAddr: 0x27B0, symBinAddr: 0x100005A48, symSize: 0x28 }
  - { offsetInCU: 0x11455, offset: 0x11455, size: 0x8, addend: 0x0, symName: __ZNSt3__112basic_stringIcNS_11char_traitsIcEENS_9allocatorIcEEE19__get_short_pointerB7v160006Ev, symObjAddr: 0x27D8, symBinAddr: 0x100005A70, symSize: 0x28 }
  - { offsetInCU: 0x11480, offset: 0x11480, size: 0x8, addend: 0x0, symName: __ZNSt3__112basic_stringIcNS_11char_traitsIcEENS_9allocatorIcEEE19__get_short_pointerB7v160006Ev, symObjAddr: 0x27D8, symBinAddr: 0x100005A70, symSize: 0x28 }
  - { offsetInCU: 0x11488, offset: 0x11488, size: 0x8, addend: 0x0, symName: __ZNKSt3__117__compressed_pairINS_12basic_stringIcNS_11char_traitsIcEENS_9allocatorIcEEE5__repES5_E5firstB7v160006Ev, symObjAddr: 0x2800, symBinAddr: 0x100005A98, symSize: 0x24 }
  - { offsetInCU: 0x114B3, offset: 0x114B3, size: 0x8, addend: 0x0, symName: __ZNKSt3__117__compressed_pairINS_12basic_stringIcNS_11char_traitsIcEENS_9allocatorIcEEE5__repES5_E5firstB7v160006Ev, symObjAddr: 0x2800, symBinAddr: 0x100005A98, symSize: 0x24 }
  - { offsetInCU: 0x114BB, offset: 0x114BB, size: 0x8, addend: 0x0, symName: __ZNKSt3__122__compressed_pair_elemINS_12basic_stringIcNS_11char_traitsIcEENS_9allocatorIcEEE5__repELi0ELb0EE5__getB7v160006Ev, symObjAddr: 0x2824, symBinAddr: 0x100005ABC, symSize: 0x14 }
  - { offsetInCU: 0x114E6, offset: 0x114E6, size: 0x8, addend: 0x0, symName: __ZNKSt3__122__compressed_pair_elemINS_12basic_stringIcNS_11char_traitsIcEENS_9allocatorIcEEE5__repELi0ELb0EE5__getB7v160006Ev, symObjAddr: 0x2824, symBinAddr: 0x100005ABC, symSize: 0x14 }
  - { offsetInCU: 0x114EE, offset: 0x114EE, size: 0x8, addend: 0x0, symName: __ZNSt3__117__compressed_pairINS_12basic_stringIcNS_11char_traitsIcEENS_9allocatorIcEEE5__repES5_E5firstB7v160006Ev, symObjAddr: 0x2838, symBinAddr: 0x100005AD0, symSize: 0x24 }
  - { offsetInCU: 0x1151A, offset: 0x1151A, size: 0x8, addend: 0x0, symName: __ZNSt3__117__compressed_pairINS_12basic_stringIcNS_11char_traitsIcEENS_9allocatorIcEEE5__repES5_E5firstB7v160006Ev, symObjAddr: 0x2838, symBinAddr: 0x100005AD0, symSize: 0x24 }
  - { offsetInCU: 0x11522, offset: 0x11522, size: 0x8, addend: 0x0, symName: __ZNSt3__122__compressed_pair_elemINS_12basic_stringIcNS_11char_traitsIcEENS_9allocatorIcEEE5__repELi0ELb0EE5__getB7v160006Ev, symObjAddr: 0x285C, symBinAddr: 0x100005AF4, symSize: 0x14 }
  - { offsetInCU: 0x1154D, offset: 0x1154D, size: 0x8, addend: 0x0, symName: __ZNSt3__122__compressed_pair_elemINS_12basic_stringIcNS_11char_traitsIcEENS_9allocatorIcEEE5__repELi0ELb0EE5__getB7v160006Ev, symObjAddr: 0x285C, symBinAddr: 0x100005AF4, symSize: 0x14 }
  - { offsetInCU: 0x11555, offset: 0x11555, size: 0x8, addend: 0x0, symName: __ZNSt3__114pointer_traitsIPcE10pointer_toB7v160006ERc, symObjAddr: 0x2870, symBinAddr: 0x100005B08, symSize: 0x14 }
  - { offsetInCU: 0x11581, offset: 0x11581, size: 0x8, addend: 0x0, symName: __ZNSt3__114pointer_traitsIPcE10pointer_toB7v160006ERc, symObjAddr: 0x2870, symBinAddr: 0x100005B08, symSize: 0x14 }
  - { offsetInCU: 0x11589, offset: 0x11589, size: 0x8, addend: 0x0, symName: __ZNSt3__119ostreambuf_iteratorIcNS_11char_traitsIcEEEC2B7v160006ERNS_13basic_ostreamIcS2_EE, symObjAddr: 0x2884, symBinAddr: 0x100005B1C, symSize: 0x54 }
  - { offsetInCU: 0x115B1, offset: 0x115B1, size: 0x8, addend: 0x0, symName: __ZNSt3__119ostreambuf_iteratorIcNS_11char_traitsIcEEEC2B7v160006ERNS_13basic_ostreamIcS2_EE, symObjAddr: 0x2884, symBinAddr: 0x100005B1C, symSize: 0x54 }
  - { offsetInCU: 0x115B9, offset: 0x115B9, size: 0x8, addend: 0x0, symName: __ZNKSt3__19basic_iosIcNS_11char_traitsIcEEE5rdbufB7v160006Ev, symObjAddr: 0x28D8, symBinAddr: 0x100005B70, symSize: 0x24 }
  - { offsetInCU: 0x115FA, offset: 0x115FA, size: 0x8, addend: 0x0, symName: __ZNKSt3__19basic_iosIcNS_11char_traitsIcEEE5rdbufB7v160006Ev, symObjAddr: 0x28D8, symBinAddr: 0x100005B70, symSize: 0x24 }
  - { offsetInCU: 0x11602, offset: 0x11602, size: 0x8, addend: 0x0, symName: __ZNKSt3__18ios_base5rdbufB7v160006Ev, symObjAddr: 0x28FC, symBinAddr: 0x100005B94, symSize: 0x18 }
  - { offsetInCU: 0x1162F, offset: 0x1162F, size: 0x8, addend: 0x0, symName: __ZNKSt3__18ios_base5rdbufB7v160006Ev, symObjAddr: 0x28FC, symBinAddr: 0x100005B94, symSize: 0x18 }
  - { offsetInCU: 0x11637, offset: 0x11637, size: 0x8, addend: 0x0, symName: __ZNSt3__111char_traitsIcE11eq_int_typeEii, symObjAddr: 0x2914, symBinAddr: 0x100005BAC, symSize: 0x28 }
  - { offsetInCU: 0x11663, offset: 0x11663, size: 0x8, addend: 0x0, symName: __ZNSt3__111char_traitsIcE11eq_int_typeEii, symObjAddr: 0x2914, symBinAddr: 0x100005BAC, symSize: 0x28 }
  - { offsetInCU: 0x1166B, offset: 0x1166B, size: 0x8, addend: 0x0, symName: __ZNSt3__111char_traitsIcE3eofEv, symObjAddr: 0x293C, symBinAddr: 0x100005BD4, symSize: 0x8 }
  - { offsetInCU: 0x116A5, offset: 0x116A5, size: 0x8, addend: 0x0, symName: __ZNSt3__111char_traitsIcE3eofEv, symObjAddr: 0x293C, symBinAddr: 0x100005BD4, symSize: 0x8 }
  - { offsetInCU: 0x116AD, offset: 0x116AD, size: 0x8, addend: 0x0, symName: __ZNKSt3__19basic_iosIcNS_11char_traitsIcEEE5widenB7v160006Ec, symObjAddr: 0x2944, symBinAddr: 0x100005BDC, symSize: 0x84 }
  - { offsetInCU: 0x116C2, offset: 0x116C2, size: 0x8, addend: 0x0, symName: __ZNKSt3__19basic_iosIcNS_11char_traitsIcEEE5widenB7v160006Ec, symObjAddr: 0x2944, symBinAddr: 0x100005BDC, symSize: 0x84 }
  - { offsetInCU: 0x116CA, offset: 0x116CA, size: 0x8, addend: 0x0, symName: __ZNSt3__19use_facetB7v160006INS_5ctypeIcEEEERKT_RKNS_6localeE, symObjAddr: 0x29C8, symBinAddr: 0x100005C60, symSize: 0x2C }
  - { offsetInCU: 0x1176D, offset: 0x1176D, size: 0x8, addend: 0x0, symName: __ZNKSt3__15ctypeIcE5widenB7v160006Ec, symObjAddr: 0x29F4, symBinAddr: 0x100005C8C, symSize: 0x38 }
  - { offsetInCU: 0x11775, offset: 0x11775, size: 0x8, addend: 0x0, symName: __ZNSt3__18ios_base8setstateB7v160006Ej, symObjAddr: 0x2A2C, symBinAddr: 0x100005CC4, symSize: 0x34 }
  - { offsetInCU: 0x117B3, offset: 0x117B3, size: 0x8, addend: 0x0, symName: __ZNSt3__18ios_base8setstateB7v160006Ej, symObjAddr: 0x2A2C, symBinAddr: 0x100005CC4, symSize: 0x34 }
  - { offsetInCU: 0x117BB, offset: 0x117BB, size: 0x8, addend: 0x0, symName: __ZNSt3__112__to_addressB7v160006IKcEEPT_S3_, symObjAddr: 0x2A60, symBinAddr: 0x100005CF8, symSize: 0x14 }
  - { offsetInCU: 0x117FB, offset: 0x117FB, size: 0x8, addend: 0x0, symName: __ZNKSt3__112basic_stringIcNS_11char_traitsIcEENS_9allocatorIcEEE13__get_pointerB7v160006Ev, symObjAddr: 0x2A74, symBinAddr: 0x100005D0C, symSize: 0x54 }
  - { offsetInCU: 0x11803, offset: 0x11803, size: 0x8, addend: 0x0, symName: __ZNKSt3__112basic_stringIcNS_11char_traitsIcEENS_9allocatorIcEEE18__get_long_pointerB7v160006Ev, symObjAddr: 0x2AC8, symBinAddr: 0x100005D60, symSize: 0x28 }
  - { offsetInCU: 0x1182E, offset: 0x1182E, size: 0x8, addend: 0x0, symName: __ZNKSt3__112basic_stringIcNS_11char_traitsIcEENS_9allocatorIcEEE18__get_long_pointerB7v160006Ev, symObjAddr: 0x2AC8, symBinAddr: 0x100005D60, symSize: 0x28 }
  - { offsetInCU: 0x11836, offset: 0x11836, size: 0x8, addend: 0x0, symName: __ZNKSt3__112basic_stringIcNS_11char_traitsIcEENS_9allocatorIcEEE19__get_short_pointerB7v160006Ev, symObjAddr: 0x2AF0, symBinAddr: 0x100005D88, symSize: 0x28 }
  - { offsetInCU: 0x11861, offset: 0x11861, size: 0x8, addend: 0x0, symName: __ZNKSt3__112basic_stringIcNS_11char_traitsIcEENS_9allocatorIcEEE19__get_short_pointerB7v160006Ev, symObjAddr: 0x2AF0, symBinAddr: 0x100005D88, symSize: 0x28 }
  - { offsetInCU: 0x11869, offset: 0x11869, size: 0x8, addend: 0x0, symName: __ZNSt3__114pointer_traitsIPKcE10pointer_toB7v160006ERS1_, symObjAddr: 0x2B18, symBinAddr: 0x100005DB0, symSize: 0x14 }
  - { offsetInCU: 0x11894, offset: 0x11894, size: 0x8, addend: 0x0, symName: __ZNSt3__114pointer_traitsIPKcE10pointer_toB7v160006ERS1_, symObjAddr: 0x2B18, symBinAddr: 0x100005DB0, symSize: 0x14 }
  - { offsetInCU: 0x1189C, offset: 0x1189C, size: 0x8, addend: 0x0, symName: __ZNKSt3__112basic_stringIcNS_11char_traitsIcEENS_9allocatorIcEEE15__get_long_sizeB7v160006Ev, symObjAddr: 0x2B2C, symBinAddr: 0x100005DC4, symSize: 0x28 }
  - { offsetInCU: 0x118C4, offset: 0x118C4, size: 0x8, addend: 0x0, symName: __ZNKSt3__112basic_stringIcNS_11char_traitsIcEENS_9allocatorIcEEE15__get_long_sizeB7v160006Ev, symObjAddr: 0x2B2C, symBinAddr: 0x100005DC4, symSize: 0x28 }
  - { offsetInCU: 0x118CC, offset: 0x118CC, size: 0x8, addend: 0x0, symName: __ZNKSt3__112basic_stringIcNS_11char_traitsIcEENS_9allocatorIcEEE16__get_short_sizeB7v160006Ev, symObjAddr: 0x2B54, symBinAddr: 0x100005DEC, symSize: 0x34 }
  - { offsetInCU: 0x118F7, offset: 0x118F7, size: 0x8, addend: 0x0, symName: __ZNKSt3__112basic_stringIcNS_11char_traitsIcEENS_9allocatorIcEEE16__get_short_sizeB7v160006Ev, symObjAddr: 0x2B54, symBinAddr: 0x100005DEC, symSize: 0x34 }
  - { offsetInCU: 0x118FF, offset: 0x118FF, size: 0x8, addend: 0x0, symName: __ZNSt3__111char_traitsIcE6lengthEPKc, symObjAddr: 0x2B88, symBinAddr: 0x100005E20, symSize: 0x34 }
  - { offsetInCU: 0x1192A, offset: 0x1192A, size: 0x8, addend: 0x0, symName: __ZNSt3__111char_traitsIcE6lengthEPKc, symObjAddr: 0x2B88, symBinAddr: 0x100005E20, symSize: 0x34 }
  - { offsetInCU: 0x11932, offset: 0x11932, size: 0x8, addend: 0x0, symName: __ZNSt3__118__constexpr_strlenB7v160006EPKc, symObjAddr: 0x2BBC, symBinAddr: 0x100005E54, symSize: 0x24 }
  - { offsetInCU: 0x11959, offset: 0x11959, size: 0x8, addend: 0x0, symName: __ZNKSt3__110__list_impI4SongNS_9allocatorIS1_EEE5beginB7v160006Ev, symObjAddr: 0x2BE0, symBinAddr: 0x100005E78, symSize: 0x30 }
  - { offsetInCU: 0x11961, offset: 0x11961, size: 0x8, addend: 0x0, symName: __ZNSt3__121__list_const_iteratorI4SongPvEC1B7v160006EPNS_16__list_node_baseIS1_S2_EEPKv, symObjAddr: 0x2C10, symBinAddr: 0x100005EA8, symSize: 0x3C }
  - { offsetInCU: 0x1198C, offset: 0x1198C, size: 0x8, addend: 0x0, symName: __ZNSt3__121__list_const_iteratorI4SongPvEC1B7v160006EPNS_16__list_node_baseIS1_S2_EEPKv, symObjAddr: 0x2C10, symBinAddr: 0x100005EA8, symSize: 0x3C }
  - { offsetInCU: 0x11994, offset: 0x11994, size: 0x8, addend: 0x0, symName: __ZNSt3__121__list_const_iteratorI4SongPvEC2B7v160006EPNS_16__list_node_baseIS1_S2_EEPKv, symObjAddr: 0x2C4C, symBinAddr: 0x100005EE4, symSize: 0x24 }
  - { offsetInCU: 0x119E9, offset: 0x119E9, size: 0x8, addend: 0x0, symName: __ZNSt3__121__list_const_iteratorI4SongPvEC2B7v160006EPNS_16__list_node_baseIS1_S2_EEPKv, symObjAddr: 0x2C4C, symBinAddr: 0x100005EE4, symSize: 0x24 }
  - { offsetInCU: 0x119F1, offset: 0x119F1, size: 0x8, addend: 0x0, symName: __ZNKSt3__110__list_impI4SongNS_9allocatorIS1_EEE3endB7v160006Ev, symObjAddr: 0x2C70, symBinAddr: 0x100005F08, symSize: 0x3C }
  - { offsetInCU: 0x11A47, offset: 0x11A47, size: 0x8, addend: 0x0, symName: __ZNKSt3__110__list_impI4SongNS_9allocatorIS1_EEE3endB7v160006Ev, symObjAddr: 0x2C70, symBinAddr: 0x100005F08, symSize: 0x3C }
  - { offsetInCU: 0x11A4F, offset: 0x11A4F, size: 0x8, addend: 0x0, symName: __ZNSt3__1eqB7v160006ERKNS_21__list_const_iteratorI4SongPvEES5_, symObjAddr: 0x2CAC, symBinAddr: 0x100005F44, symSize: 0x30 }
  - { offsetInCU: 0x11A7A, offset: 0x11A7A, size: 0x8, addend: 0x0, symName: __ZNSt3__112basic_stringIcNS_11char_traitsIcEENS_9allocatorIcEEEC2B7v160006IDnEEPKc, symObjAddr: 0x2CDC, symBinAddr: 0x100005F74, symSize: 0x60 }
  - { offsetInCU: 0x11A82, offset: 0x11A82, size: 0x8, addend: 0x0, symName: __ZNSt3__14listI4SongNS_9allocatorIS1_EEEC2ESt16initializer_listIS1_E, symObjAddr: 0x2D3C, symBinAddr: 0x100005FD4, symSize: 0xC8 }
  - { offsetInCU: 0x11ACD, offset: 0x11ACD, size: 0x8, addend: 0x0, symName: __ZNSt3__14listI4SongNS_9allocatorIS1_EEEC2ESt16initializer_listIS1_E, symObjAddr: 0x2D3C, symBinAddr: 0x100005FD4, symSize: 0xC8 }
  - { offsetInCU: 0x11AD5, offset: 0x11AD5, size: 0x8, addend: 0x0, symName: __ZNSt3__110__list_impI4SongNS_9allocatorIS1_EEEC2Ev, symObjAddr: 0x2E04, symBinAddr: 0x10000609C, symSize: 0x50 }
  - { offsetInCU: 0x11B51, offset: 0x11B51, size: 0x8, addend: 0x0, symName: __ZNSt3__110__list_impI4SongNS_9allocatorIS1_EEEC2Ev, symObjAddr: 0x2E04, symBinAddr: 0x10000609C, symSize: 0x50 }
  - { offsetInCU: 0x11B59, offset: 0x11B59, size: 0x8, addend: 0x0, symName: __ZNSt3__119__debug_db_insert_cB7v160006INS_4listI4SongNS_9allocatorIS2_EEEEEEvPT_, symObjAddr: 0x2E54, symBinAddr: 0x1000060EC, symSize: 0x10 }
  - { offsetInCU: 0x11B8A, offset: 0x11B8A, size: 0x8, addend: 0x0, symName: __ZNKSt16initializer_listI4SongE5beginB7v160006Ev, symObjAddr: 0x2E64, symBinAddr: 0x1000060FC, symSize: 0x18 }
  - { offsetInCU: 0x11B92, offset: 0x11B92, size: 0x8, addend: 0x0, symName: __ZNKSt16initializer_listI4SongE3endB7v160006Ev, symObjAddr: 0x2E7C, symBinAddr: 0x100006114, symSize: 0x28 }
  - { offsetInCU: 0x11BBE, offset: 0x11BBE, size: 0x8, addend: 0x0, symName: __ZNKSt16initializer_listI4SongE3endB7v160006Ev, symObjAddr: 0x2E7C, symBinAddr: 0x100006114, symSize: 0x28 }
  - { offsetInCU: 0x11BC6, offset: 0x11BC6, size: 0x8, addend: 0x0, symName: __ZNSt3__14listI4SongNS_9allocatorIS1_EEE9push_backERKS1_, symObjAddr: 0x2EA4, symBinAddr: 0x10000613C, symSize: 0xF4 }
  - { offsetInCU: 0x11BF2, offset: 0x11BF2, size: 0x8, addend: 0x0, symName: __ZNSt3__14listI4SongNS_9allocatorIS1_EEE9push_backERKS1_, symObjAddr: 0x2EA4, symBinAddr: 0x10000613C, symSize: 0xF4 }
  - { offsetInCU: 0x11BFA, offset: 0x11BFA, size: 0x8, addend: 0x0, symName: __ZNSt3__116__list_node_baseI4SongPvEC1B7v160006Ev, symObjAddr: 0x2F98, symBinAddr: 0x100006230, symSize: 0x2C }
  - { offsetInCU: 0x11C60, offset: 0x11C60, size: 0x8, addend: 0x0, symName: __ZNSt3__116__list_node_baseI4SongPvEC1B7v160006Ev, symObjAddr: 0x2F98, symBinAddr: 0x100006230, symSize: 0x2C }
  - { offsetInCU: 0x11C68, offset: 0x11C68, size: 0x8, addend: 0x0, symName: __ZNSt3__117__compressed_pairImNS_9allocatorINS_11__list_nodeI4SongPvEEEEEC1B7v160006IiNS_18__default_init_tagEEEOT_OT0_, symObjAddr: 0x2FC4, symBinAddr: 0x10000625C, symSize: 0x3C }
  - { offsetInCU: 0x11CA0, offset: 0x11CA0, size: 0x8, addend: 0x0, symName: __ZNSt3__117__compressed_pairImNS_9allocatorINS_11__list_nodeI4SongPvEEEEEC1B7v160006IiNS_18__default_init_tagEEEOT_OT0_, symObjAddr: 0x2FC4, symBinAddr: 0x10000625C, symSize: 0x3C }
  - { offsetInCU: 0x11CA8, offset: 0x11CA8, size: 0x8, addend: 0x0, symName: __ZNSt3__116__list_node_baseI4SongPvEC2B7v160006Ev, symObjAddr: 0x3000, symBinAddr: 0x100006298, symSize: 0x4C }
  - { offsetInCU: 0x11D15, offset: 0x11D15, size: 0x8, addend: 0x0, symName: __ZNSt3__116__list_node_baseI4SongPvEC2B7v160006Ev, symObjAddr: 0x3000, symBinAddr: 0x100006298, symSize: 0x4C }
  - { offsetInCU: 0x11D1D, offset: 0x11D1D, size: 0x8, addend: 0x0, symName: __ZNSt3__117__compressed_pairImNS_9allocatorINS_11__list_nodeI4SongPvEEEEEC2B7v160006IiNS_18__default_init_tagEEEOT_OT0_, symObjAddr: 0x304C, symBinAddr: 0x1000062E4, symSize: 0x40 }
  - { offsetInCU: 0x11D4C, offset: 0x11D4C, size: 0x8, addend: 0x0, symName: __ZNSt3__117__compressed_pairImNS_9allocatorINS_11__list_nodeI4SongPvEEEEEC2B7v160006IiNS_18__default_init_tagEEEOT_OT0_, symObjAddr: 0x304C, symBinAddr: 0x1000062E4, symSize: 0x40 }
  - { offsetInCU: 0x11D54, offset: 0x11D54, size: 0x8, addend: 0x0, symName: __ZNSt3__122__compressed_pair_elemImLi0ELb0EEC2B7v160006IivEEOT_, symObjAddr: 0x308C, symBinAddr: 0x100006324, symSize: 0x24 }
  - { offsetInCU: 0x11DC1, offset: 0x11DC1, size: 0x8, addend: 0x0, symName: __ZNSt3__122__compressed_pair_elemImLi0ELb0EEC2B7v160006IivEEOT_, symObjAddr: 0x308C, symBinAddr: 0x100006324, symSize: 0x24 }
  - { offsetInCU: 0x11DC9, offset: 0x11DC9, size: 0x8, addend: 0x0, symName: __ZNSt3__122__compressed_pair_elemINS_9allocatorINS_11__list_nodeI4SongPvEEEELi1ELb1EEC2B7v160006ENS_18__default_init_tagE, symObjAddr: 0x30B0, symBinAddr: 0x100006348, symSize: 0x2C }
  - { offsetInCU: 0x11E19, offset: 0x11E19, size: 0x8, addend: 0x0, symName: __ZNSt3__122__compressed_pair_elemINS_9allocatorINS_11__list_nodeI4SongPvEEEELi1ELb1EEC2B7v160006ENS_18__default_init_tagE, symObjAddr: 0x30B0, symBinAddr: 0x100006348, symSize: 0x2C }
  - { offsetInCU: 0x11E21, offset: 0x11E21, size: 0x8, addend: 0x0, symName: __ZNSt3__19allocatorINS_11__list_nodeI4SongPvEEEC2B7v160006Ev, symObjAddr: 0x30DC, symBinAddr: 0x100006374, symSize: 0x2C }
  - { offsetInCU: 0x11E5F, offset: 0x11E5F, size: 0x8, addend: 0x0, symName: __ZNSt3__19allocatorINS_11__list_nodeI4SongPvEEEC2B7v160006Ev, symObjAddr: 0x30DC, symBinAddr: 0x100006374, symSize: 0x2C }
  - { offsetInCU: 0x11E67, offset: 0x11E67, size: 0x8, addend: 0x0, symName: __ZNSt3__116__non_trivial_ifILb1ENS_9allocatorINS_11__list_nodeI4SongPvEEEEEC2B7v160006Ev, symObjAddr: 0x3108, symBinAddr: 0x1000063A0, symSize: 0x14 }
  - { offsetInCU: 0x11E96, offset: 0x11E96, size: 0x8, addend: 0x0, symName: __ZNSt3__116__non_trivial_ifILb1ENS_9allocatorINS_11__list_nodeI4SongPvEEEEEC2B7v160006Ev, symObjAddr: 0x3108, symBinAddr: 0x1000063A0, symSize: 0x14 }
  - { offsetInCU: 0x11E9E, offset: 0x11E9E, size: 0x8, addend: 0x0, symName: __ZNSt3__14listI4SongNS_9allocatorIS1_EEE15__allocate_nodeB7v160006ERNS2_INS_11__list_nodeIS1_PvEEEE, symObjAddr: 0x311C, symBinAddr: 0x1000063B4, symSize: 0x70 }
  - { offsetInCU: 0x11ECE, offset: 0x11ECE, size: 0x8, addend: 0x0, symName: __ZNSt3__14listI4SongNS_9allocatorIS1_EEE15__allocate_nodeB7v160006ERNS2_INS_11__list_nodeIS1_PvEEEE, symObjAddr: 0x311C, symBinAddr: 0x1000063B4, symSize: 0x70 }
  - { offsetInCU: 0x11ED6, offset: 0x11ED6, size: 0x8, addend: 0x0, symName: __ZNSt3__116allocator_traitsINS_9allocatorINS_11__list_nodeI4SongPvEEEEE9constructB7v160006IS3_JRKS3_EvEEvRS6_PT_DpOT0_, symObjAddr: 0x318C, symBinAddr: 0x100006424, symSize: 0x34 }
  - { offsetInCU: 0x11F27, offset: 0x11F27, size: 0x8, addend: 0x0, symName: __ZNSt3__116allocator_traitsINS_9allocatorINS_11__list_nodeI4SongPvEEEEE9constructB7v160006IS3_JRKS3_EvEEvRS6_PT_DpOT0_, symObjAddr: 0x318C, symBinAddr: 0x100006424, symSize: 0x34 }
  - { offsetInCU: 0x11F2F, offset: 0x11F2F, size: 0x8, addend: 0x0, symName: __ZNKSt3__110unique_ptrINS_11__list_nodeI4SongPvEENS_22__allocator_destructorINS_9allocatorIS4_EEEEEptB7v160006Ev, symObjAddr: 0x31C0, symBinAddr: 0x100006458, symSize: 0x28 }
  - { offsetInCU: 0x11F9A, offset: 0x11F9A, size: 0x8, addend: 0x0, symName: __ZNKSt3__110unique_ptrINS_11__list_nodeI4SongPvEENS_22__allocator_destructorINS_9allocatorIS4_EEEEEptB7v160006Ev, symObjAddr: 0x31C0, symBinAddr: 0x100006458, symSize: 0x28 }
  - { offsetInCU: 0x11FA2, offset: 0x11FA2, size: 0x8, addend: 0x0, symName: __ZNSt3__14listI4SongNS_9allocatorIS1_EEE20__link_nodes_at_backEPNS_16__list_node_baseIS1_PvEES8_, symObjAddr: 0x31E8, symBinAddr: 0x100006480, symSize: 0x60 }
  - { offsetInCU: 0x11FCD, offset: 0x11FCD, size: 0x8, addend: 0x0, symName: __ZNSt3__14listI4SongNS_9allocatorIS1_EEE20__link_nodes_at_backEPNS_16__list_node_baseIS1_PvEES8_, symObjAddr: 0x31E8, symBinAddr: 0x100006480, symSize: 0x60 }
  - { offsetInCU: 0x11FD5, offset: 0x11FD5, size: 0x8, addend: 0x0, symName: __ZNKSt3__110unique_ptrINS_11__list_nodeI4SongPvEENS_22__allocator_destructorINS_9allocatorIS4_EEEEE3getB7v160006Ev, symObjAddr: 0x3248, symBinAddr: 0x1000064E0, symSize: 0x28 }
  - { offsetInCU: 0x12028, offset: 0x12028, size: 0x8, addend: 0x0, symName: __ZNKSt3__110unique_ptrINS_11__list_nodeI4SongPvEENS_22__allocator_destructorINS_9allocatorIS4_EEEEE3getB7v160006Ev, symObjAddr: 0x3248, symBinAddr: 0x1000064E0, symSize: 0x28 }
  - { offsetInCU: 0x12030, offset: 0x12030, size: 0x8, addend: 0x0, symName: __ZNSt3__111__list_nodeI4SongPvE9__as_linkB7v160006Ev, symObjAddr: 0x3270, symBinAddr: 0x100006508, symSize: 0x24 }
  - { offsetInCU: 0x1205B, offset: 0x1205B, size: 0x8, addend: 0x0, symName: __ZNSt3__111__list_nodeI4SongPvE9__as_linkB7v160006Ev, symObjAddr: 0x3270, symBinAddr: 0x100006508, symSize: 0x24 }
  - { offsetInCU: 0x12063, offset: 0x12063, size: 0x8, addend: 0x0, symName: __ZNSt3__110unique_ptrINS_11__list_nodeI4SongPvEENS_22__allocator_destructorINS_9allocatorIS4_EEEEE7releaseB7v160006Ev, symObjAddr: 0x3294, symBinAddr: 0x10000652C, symSize: 0x44 }
  - { offsetInCU: 0x1208E, offset: 0x1208E, size: 0x8, addend: 0x0, symName: __ZNSt3__110unique_ptrINS_11__list_nodeI4SongPvEENS_22__allocator_destructorINS_9allocatorIS4_EEEEE7releaseB7v160006Ev, symObjAddr: 0x3294, symBinAddr: 0x10000652C, symSize: 0x44 }
  - { offsetInCU: 0x12096, offset: 0x12096, size: 0x8, addend: 0x0, symName: __ZNSt3__110unique_ptrINS_11__list_nodeI4SongPvEENS_22__allocator_destructorINS_9allocatorIS4_EEEEED1B7v160006Ev, symObjAddr: 0x32D8, symBinAddr: 0x100006570, symSize: 0x2C }
  - { offsetInCU: 0x120D4, offset: 0x120D4, size: 0x8, addend: 0x0, symName: __ZNSt3__110unique_ptrINS_11__list_nodeI4SongPvEENS_22__allocator_destructorINS_9allocatorIS4_EEEEED1B7v160006Ev, symObjAddr: 0x32D8, symBinAddr: 0x100006570, symSize: 0x2C }
  - { offsetInCU: 0x120DC, offset: 0x120DC, size: 0x8, addend: 0x0, symName: __ZNSt3__116allocator_traitsINS_9allocatorINS_11__list_nodeI4SongPvEEEEE8allocateB7v160006ERS6_m, symObjAddr: 0x3304, symBinAddr: 0x10000659C, symSize: 0x2C }
  - { offsetInCU: 0x1210B, offset: 0x1210B, size: 0x8, addend: 0x0, symName: __ZNSt3__116allocator_traitsINS_9allocatorINS_11__list_nodeI4SongPvEEEEE8allocateB7v160006ERS6_m, symObjAddr: 0x3304, symBinAddr: 0x10000659C, symSize: 0x2C }
  - { offsetInCU: 0x12113, offset: 0x12113, size: 0x8, addend: 0x0, symName: __ZNSt3__122__allocator_destructorINS_9allocatorINS_11__list_nodeI4SongPvEEEEEC1B7v160006ERS6_m, symObjAddr: 0x3330, symBinAddr: 0x1000065C8, symSize: 0x3C }
  - { offsetInCU: 0x1214E, offset: 0x1214E, size: 0x8, addend: 0x0, symName: __ZNSt3__122__allocator_destructorINS_9allocatorINS_11__list_nodeI4SongPvEEEEEC1B7v160006ERS6_m, symObjAddr: 0x3330, symBinAddr: 0x1000065C8, symSize: 0x3C }
  - { offsetInCU: 0x12156, offset: 0x12156, size: 0x8, addend: 0x0, symName: __ZNSt3__110unique_ptrINS_11__list_nodeI4SongPvEENS_22__allocator_destructorINS_9allocatorIS4_EEEEEC1B7v160006ILb1EvEEPS4_NS_16__dependent_typeINS_27__unique_ptr_deleter_sfinaeIS8_EEXT_EE20__good_rval_ref_typeE, symObjAddr: 0x336C, symBinAddr: 0x100006604, symSize: 0x3C }
  - { offsetInCU: 0x121B2, offset: 0x121B2, size: 0x8, addend: 0x0, symName: __ZNSt3__110unique_ptrINS_11__list_nodeI4SongPvEENS_22__allocator_destructorINS_9allocatorIS4_EEEEEC1B7v160006ILb1EvEEPS4_NS_16__dependent_typeINS_27__unique_ptr_deleter_sfinaeIS8_EEXT_EE20__good_rval_ref_typeE, symObjAddr: 0x336C, symBinAddr: 0x100006604, symSize: 0x3C }
  - { offsetInCU: 0x121BA, offset: 0x121BA, size: 0x8, addend: 0x0, symName: __ZNSt3__19allocatorINS_11__list_nodeI4SongPvEEE8allocateB7v160006Em, symObjAddr: 0x33A8, symBinAddr: 0x100006640, symSize: 0x5C }
  - { offsetInCU: 0x1221C, offset: 0x1221C, size: 0x8, addend: 0x0, symName: __ZNSt3__19allocatorINS_11__list_nodeI4SongPvEEE8allocateB7v160006Em, symObjAddr: 0x33A8, symBinAddr: 0x100006640, symSize: 0x5C }
  - { offsetInCU: 0x12224, offset: 0x12224, size: 0x8, addend: 0x0, symName: __ZNSt3__116allocator_traitsINS_9allocatorINS_11__list_nodeI4SongPvEEEEE8max_sizeB7v160006IS6_vEEmRKS6_, symObjAddr: 0x3404, symBinAddr: 0x10000669C, symSize: 0x24 }
  - { offsetInCU: 0x12273, offset: 0x12273, size: 0x8, addend: 0x0, symName: __ZNSt3__116allocator_traitsINS_9allocatorINS_11__list_nodeI4SongPvEEEEE8max_sizeB7v160006IS6_vEEmRKS6_, symObjAddr: 0x3404, symBinAddr: 0x10000669C, symSize: 0x24 }
  - { offsetInCU: 0x1227B, offset: 0x1227B, size: 0x8, addend: 0x0, symName: __ZSt28__throw_bad_array_new_lengthB7v160006v, symObjAddr: 0x3428, symBinAddr: 0x1000066C0, symSize: 0x34 }
  - { offsetInCU: 0x122B1, offset: 0x122B1, size: 0x8, addend: 0x0, symName: __ZNKSt3__19allocatorINS_11__list_nodeI4SongPvEEE8max_sizeB7v160006Ev, symObjAddr: 0x34BC, symBinAddr: 0x100006754, symSize: 0x20 }
  - { offsetInCU: 0x122B9, offset: 0x122B9, size: 0x8, addend: 0x0, symName: __ZNSt3__121__libcpp_operator_newB7v160006IJmSt11align_val_tEEEPvDpT_, symObjAddr: 0x34DC, symBinAddr: 0x100006774, symSize: 0x2C }
  - { offsetInCU: 0x122E5, offset: 0x122E5, size: 0x8, addend: 0x0, symName: __ZNSt3__122__allocator_destructorINS_9allocatorINS_11__list_nodeI4SongPvEEEEEC2B7v160006ERS6_m, symObjAddr: 0x352C, symBinAddr: 0x1000067C4, symSize: 0x2C }
  - { offsetInCU: 0x122ED, offset: 0x122ED, size: 0x8, addend: 0x0, symName: __ZNSt3__110unique_ptrINS_11__list_nodeI4SongPvEENS_22__allocator_destructorINS_9allocatorIS4_EEEEEC2B7v160006ILb1EvEEPS4_NS_16__dependent_typeINS_27__unique_ptr_deleter_sfinaeIS8_EEXT_EE20__good_rval_ref_typeE, symObjAddr: 0x3558, symBinAddr: 0x1000067F0, symSize: 0x48 }
  - { offsetInCU: 0x12341, offset: 0x12341, size: 0x8, addend: 0x0, symName: __ZNSt3__110unique_ptrINS_11__list_nodeI4SongPvEENS_22__allocator_destructorINS_9allocatorIS4_EEEEEC2B7v160006ILb1EvEEPS4_NS_16__dependent_typeINS_27__unique_ptr_deleter_sfinaeIS8_EEXT_EE20__good_rval_ref_typeE, symObjAddr: 0x3558, symBinAddr: 0x1000067F0, symSize: 0x48 }
  - { offsetInCU: 0x12349, offset: 0x12349, size: 0x8, addend: 0x0, symName: __ZNSt3__117__compressed_pairIPNS_11__list_nodeI4SongPvEENS_22__allocator_destructorINS_9allocatorIS4_EEEEEC1B7v160006IRS5_S9_EEOT_OT0_, symObjAddr: 0x35A0, symBinAddr: 0x100006838, symSize: 0x3C }
  - { offsetInCU: 0x123AB, offset: 0x123AB, size: 0x8, addend: 0x0, symName: __ZNSt3__117__compressed_pairIPNS_11__list_nodeI4SongPvEENS_22__allocator_destructorINS_9allocatorIS4_EEEEEC1B7v160006IRS5_S9_EEOT_OT0_, symObjAddr: 0x35A0, symBinAddr: 0x100006838, symSize: 0x3C }
  - { offsetInCU: 0x123B3, offset: 0x123B3, size: 0x8, addend: 0x0, symName: __ZNSt3__117__compressed_pairIPNS_11__list_nodeI4SongPvEENS_22__allocator_destructorINS_9allocatorIS4_EEEEEC2B7v160006IRS5_S9_EEOT_OT0_, symObjAddr: 0x35DC, symBinAddr: 0x100006874, symSize: 0x48 }
  - { offsetInCU: 0x12420, offset: 0x12420, size: 0x8, addend: 0x0, symName: __ZNSt3__117__compressed_pairIPNS_11__list_nodeI4SongPvEENS_22__allocator_destructorINS_9allocatorIS4_EEEEEC2B7v160006IRS5_S9_EEOT_OT0_, symObjAddr: 0x35DC, symBinAddr: 0x100006874, symSize: 0x48 }
  - { offsetInCU: 0x12428, offset: 0x12428, size: 0x8, addend: 0x0, symName: __ZNSt3__122__compressed_pair_elemIPNS_11__list_nodeI4SongPvEELi0ELb0EEC2B7v160006IRS5_vEEOT_, symObjAddr: 0x3624, symBinAddr: 0x1000068BC, symSize: 0x24 }
  - { offsetInCU: 0x12495, offset: 0x12495, size: 0x8, addend: 0x0, symName: __ZNSt3__122__compressed_pair_elemIPNS_11__list_nodeI4SongPvEELi0ELb0EEC2B7v160006IRS5_vEEOT_, symObjAddr: 0x3624, symBinAddr: 0x1000068BC, symSize: 0x24 }
  - { offsetInCU: 0x1249D, offset: 0x1249D, size: 0x8, addend: 0x0, symName: __ZNSt3__122__compressed_pair_elemINS_22__allocator_destructorINS_9allocatorINS_11__list_nodeI4SongPvEEEEEELi1ELb0EEC2B7v160006IS8_vEEOT_, symObjAddr: 0x3648, symBinAddr: 0x1000068E0, symSize: 0x24 }
  - { offsetInCU: 0x124ED, offset: 0x124ED, size: 0x8, addend: 0x0, symName: __ZNSt3__122__compressed_pair_elemINS_22__allocator_destructorINS_9allocatorINS_11__list_nodeI4SongPvEEEEEELi1ELb0EEC2B7v160006IS8_vEEOT_, symObjAddr: 0x3648, symBinAddr: 0x1000068E0, symSize: 0x24 }
  - { offsetInCU: 0x124F5, offset: 0x124F5, size: 0x8, addend: 0x0, symName: __ZNSt3__19allocatorINS_11__list_nodeI4SongPvEEE9constructB7v160006IS2_JRKS2_EEEvPT_DpOT0_, symObjAddr: 0x366C, symBinAddr: 0x100006904, symSize: 0x30 }
  - { offsetInCU: 0x12545, offset: 0x12545, size: 0x8, addend: 0x0, symName: __ZNSt3__19allocatorINS_11__list_nodeI4SongPvEEE9constructB7v160006IS2_JRKS2_EEEvPT_DpOT0_, symObjAddr: 0x366C, symBinAddr: 0x100006904, symSize: 0x30 }
  - { offsetInCU: 0x1254D, offset: 0x1254D, size: 0x8, addend: 0x0, symName: __ZNKSt3__117__compressed_pairIPNS_11__list_nodeI4SongPvEENS_22__allocator_destructorINS_9allocatorIS4_EEEEE5firstB7v160006Ev, symObjAddr: 0x369C, symBinAddr: 0x100006934, symSize: 0x24 }
  - { offsetInCU: 0x125B8, offset: 0x125B8, size: 0x8, addend: 0x0, symName: __ZNKSt3__117__compressed_pairIPNS_11__list_nodeI4SongPvEENS_22__allocator_destructorINS_9allocatorIS4_EEEEE5firstB7v160006Ev, symObjAddr: 0x369C, symBinAddr: 0x100006934, symSize: 0x24 }
  - { offsetInCU: 0x125C0, offset: 0x125C0, size: 0x8, addend: 0x0, symName: __ZNKSt3__122__compressed_pair_elemIPNS_11__list_nodeI4SongPvEELi0ELb0EE5__getB7v160006Ev, symObjAddr: 0x36C0, symBinAddr: 0x100006958, symSize: 0x14 }
  - { offsetInCU: 0x125EB, offset: 0x125EB, size: 0x8, addend: 0x0, symName: __ZNKSt3__122__compressed_pair_elemIPNS_11__list_nodeI4SongPvEELi0ELb0EE5__getB7v160006Ev, symObjAddr: 0x36C0, symBinAddr: 0x100006958, symSize: 0x14 }
  - { offsetInCU: 0x125F3, offset: 0x125F3, size: 0x8, addend: 0x0, symName: __ZNSt3__117__compressed_pairIPNS_11__list_nodeI4SongPvEENS_22__allocator_destructorINS_9allocatorIS4_EEEEE5firstB7v160006Ev, symObjAddr: 0x36D4, symBinAddr: 0x10000696C, symSize: 0x24 }
  - { offsetInCU: 0x1261F, offset: 0x1261F, size: 0x8, addend: 0x0, symName: __ZNSt3__117__compressed_pairIPNS_11__list_nodeI4SongPvEENS_22__allocator_destructorINS_9allocatorIS4_EEEEE5firstB7v160006Ev, symObjAddr: 0x36D4, symBinAddr: 0x10000696C, symSize: 0x24 }
  - { offsetInCU: 0x12627, offset: 0x12627, size: 0x8, addend: 0x0, symName: __ZNSt3__122__compressed_pair_elemIPNS_11__list_nodeI4SongPvEELi0ELb0EE5__getB7v160006Ev, symObjAddr: 0x36F8, symBinAddr: 0x100006990, symSize: 0x14 }
  - { offsetInCU: 0x12652, offset: 0x12652, size: 0x8, addend: 0x0, symName: __ZNSt3__122__compressed_pair_elemIPNS_11__list_nodeI4SongPvEELi0ELb0EE5__getB7v160006Ev, symObjAddr: 0x36F8, symBinAddr: 0x100006990, symSize: 0x14 }
  - { offsetInCU: 0x1265A, offset: 0x1265A, size: 0x8, addend: 0x0, symName: __ZNSt3__110unique_ptrINS_11__list_nodeI4SongPvEENS_22__allocator_destructorINS_9allocatorIS4_EEEEED2B7v160006Ev, symObjAddr: 0x370C, symBinAddr: 0x1000069A4, symSize: 0x30 }
  - { offsetInCU: 0x12686, offset: 0x12686, size: 0x8, addend: 0x0, symName: __ZNSt3__110unique_ptrINS_11__list_nodeI4SongPvEENS_22__allocator_destructorINS_9allocatorIS4_EEEEED2B7v160006Ev, symObjAddr: 0x370C, symBinAddr: 0x1000069A4, symSize: 0x30 }
  - { offsetInCU: 0x1268E, offset: 0x1268E, size: 0x8, addend: 0x0, symName: __ZNSt3__110unique_ptrINS_11__list_nodeI4SongPvEENS_22__allocator_destructorINS_9allocatorIS4_EEEEE5resetB7v160006EPS4_, symObjAddr: 0x373C, symBinAddr: 0x1000069D4, symSize: 0x78 }
  - { offsetInCU: 0x126BD, offset: 0x126BD, size: 0x8, addend: 0x0, symName: __ZNSt3__110unique_ptrINS_11__list_nodeI4SongPvEENS_22__allocator_destructorINS_9allocatorIS4_EEEEE5resetB7v160006EPS4_, symObjAddr: 0x373C, symBinAddr: 0x1000069D4, symSize: 0x78 }
  - { offsetInCU: 0x126C5, offset: 0x126C5, size: 0x8, addend: 0x0, symName: __ZNSt3__117__compressed_pairIPNS_11__list_nodeI4SongPvEENS_22__allocator_destructorINS_9allocatorIS4_EEEEE6secondB7v160006Ev, symObjAddr: 0x37B4, symBinAddr: 0x100006A4C, symSize: 0x28 }
  - { offsetInCU: 0x12716, offset: 0x12716, size: 0x8, addend: 0x0, symName: __ZNSt3__117__compressed_pairIPNS_11__list_nodeI4SongPvEENS_22__allocator_destructorINS_9allocatorIS4_EEEEE6secondB7v160006Ev, symObjAddr: 0x37B4, symBinAddr: 0x100006A4C, symSize: 0x28 }
  - { offsetInCU: 0x1271E, offset: 0x1271E, size: 0x8, addend: 0x0, symName: __ZNSt3__122__allocator_destructorINS_9allocatorINS_11__list_nodeI4SongPvEEEEEclB7v160006EPS5_, symObjAddr: 0x37DC, symBinAddr: 0x100006A74, symSize: 0x34 }
  - { offsetInCU: 0x12749, offset: 0x12749, size: 0x8, addend: 0x0, symName: __ZNSt3__122__allocator_destructorINS_9allocatorINS_11__list_nodeI4SongPvEEEEEclB7v160006EPS5_, symObjAddr: 0x37DC, symBinAddr: 0x100006A74, symSize: 0x34 }
  - { offsetInCU: 0x12751, offset: 0x12751, size: 0x8, addend: 0x0, symName: __ZNSt3__122__compressed_pair_elemINS_22__allocator_destructorINS_9allocatorINS_11__list_nodeI4SongPvEEEEEELi1ELb0EE5__getB7v160006Ev, symObjAddr: 0x3810, symBinAddr: 0x100006AA8, symSize: 0x14 }
  - { offsetInCU: 0x1278E, offset: 0x1278E, size: 0x8, addend: 0x0, symName: __ZNSt3__122__compressed_pair_elemINS_22__allocator_destructorINS_9allocatorINS_11__list_nodeI4SongPvEEEEEELi1ELb0EE5__getB7v160006Ev, symObjAddr: 0x3810, symBinAddr: 0x100006AA8, symSize: 0x14 }
  - { offsetInCU: 0x12796, offset: 0x12796, size: 0x8, addend: 0x0, symName: __ZNSt3__110__list_impI4SongNS_9allocatorIS1_EEE5beginB7v160006Ev, symObjAddr: 0x3824, symBinAddr: 0x100006ABC, symSize: 0x30 }
  - { offsetInCU: 0x127C2, offset: 0x127C2, size: 0x8, addend: 0x0, symName: __ZNSt3__110__list_impI4SongNS_9allocatorIS1_EEE5beginB7v160006Ev, symObjAddr: 0x3824, symBinAddr: 0x100006ABC, symSize: 0x30 }
  - { offsetInCU: 0x127CA, offset: 0x127CA, size: 0x8, addend: 0x0, symName: __ZNSt3__115__list_iteratorI4SongPvEC1B7v160006EPNS_16__list_node_baseIS1_S2_EEPKv, symObjAddr: 0x3854, symBinAddr: 0x100006AEC, symSize: 0x3C }
  - { offsetInCU: 0x127F5, offset: 0x127F5, size: 0x8, addend: 0x0, symName: __ZNSt3__115__list_iteratorI4SongPvEC1B7v160006EPNS_16__list_node_baseIS1_S2_EEPKv, symObjAddr: 0x3854, symBinAddr: 0x100006AEC, symSize: 0x3C }
  - { offsetInCU: 0x127FD, offset: 0x127FD, size: 0x8, addend: 0x0, symName: __ZNSt3__115__list_iteratorI4SongPvEC2B7v160006EPNS_16__list_node_baseIS1_S2_EEPKv, symObjAddr: 0x3890, symBinAddr: 0x100006B28, symSize: 0x24 }
  - { offsetInCU: 0x12852, offset: 0x12852, size: 0x8, addend: 0x0, symName: __ZNSt3__115__list_iteratorI4SongPvEC2B7v160006EPNS_16__list_node_baseIS1_S2_EEPKv, symObjAddr: 0x3890, symBinAddr: 0x100006B28, symSize: 0x24 }
  - { offsetInCU: 0x1285A, offset: 0x1285A, size: 0x8, addend: 0x0, symName: __ZNKSt3__113basic_istreamIcNS_11char_traitsIcEEE6sentrycvbB7v160006Ev, symObjAddr: 0x38B4, symBinAddr: 0x100006B4C, symSize: 0x1C }
  - { offsetInCU: 0x129AD, offset: 0x129AD, size: 0x8, addend: 0x0, symName: __ZNKSt3__113basic_istreamIcNS_11char_traitsIcEEE6sentrycvbB7v160006Ev, symObjAddr: 0x38B4, symBinAddr: 0x100006B4C, symSize: 0x1C }
  - { offsetInCU: 0x129B5, offset: 0x129B5, size: 0x8, addend: 0x0, symName: __ZNSt3__115basic_streambufIcNS_11char_traitsIcEEE6sbumpcB7v160006Ev, symObjAddr: 0x38D0, symBinAddr: 0x100006B68, symSize: 0x78 }
  - { offsetInCU: 0x129E1, offset: 0x129E1, size: 0x8, addend: 0x0, symName: __ZNSt3__115basic_streambufIcNS_11char_traitsIcEEE6sbumpcB7v160006Ev, symObjAddr: 0x38D0, symBinAddr: 0x100006B68, symSize: 0x78 }
  - { offsetInCU: 0x129E9, offset: 0x129E9, size: 0x8, addend: 0x0, symName: __ZNSt3__111char_traitsIcE12to_char_typeEi, symObjAddr: 0x3948, symBinAddr: 0x100006BE0, symSize: 0x18 }
  - { offsetInCU: 0x12A14, offset: 0x12A14, size: 0x8, addend: 0x0, symName: __ZNSt3__111char_traitsIcE12to_char_typeEi, symObjAddr: 0x3948, symBinAddr: 0x100006BE0, symSize: 0x18 }
  - { offsetInCU: 0x12A1C, offset: 0x12A1C, size: 0x8, addend: 0x0, symName: __ZNSt3__18ios_base18__setstate_nothrowB7v160006Ej, symObjAddr: 0x3960, symBinAddr: 0x100006BF8, symSize: 0x64 }
  - { offsetInCU: 0x12A44, offset: 0x12A44, size: 0x8, addend: 0x0, symName: __ZNSt3__18ios_base18__setstate_nothrowB7v160006Ej, symObjAddr: 0x3960, symBinAddr: 0x100006BF8, symSize: 0x64 }
  - { offsetInCU: 0x12A4C, offset: 0x12A4C, size: 0x8, addend: 0x0, symName: __ZNKSt3__19basic_iosIcNS_11char_traitsIcEEE10exceptionsB7v160006Ev, symObjAddr: 0x39C4, symBinAddr: 0x100006C5C, symSize: 0x24 }
  - { offsetInCU: 0x12A8B, offset: 0x12A8B, size: 0x8, addend: 0x0, symName: __ZNKSt3__19basic_iosIcNS_11char_traitsIcEEE10exceptionsB7v160006Ev, symObjAddr: 0x39C4, symBinAddr: 0x100006C5C, symSize: 0x24 }
  - { offsetInCU: 0x12A93, offset: 0x12A93, size: 0x8, addend: 0x0, symName: __ZNSt3__111char_traitsIcE11to_int_typeEc, symObjAddr: 0x39E8, symBinAddr: 0x100006C80, symSize: 0x14 }
  - { offsetInCU: 0x12ABE, offset: 0x12ABE, size: 0x8, addend: 0x0, symName: __ZNSt3__111char_traitsIcE11to_int_typeEc, symObjAddr: 0x39E8, symBinAddr: 0x100006C80, symSize: 0x14 }
  - { offsetInCU: 0x12AC6, offset: 0x12AC6, size: 0x8, addend: 0x0, symName: __ZNKSt3__18ios_base10exceptionsB7v160006Ev, symObjAddr: 0x39FC, symBinAddr: 0x100006C94, symSize: 0x18 }
  - { offsetInCU: 0x12AEE, offset: 0x12AEE, size: 0x8, addend: 0x0, symName: __ZNKSt3__18ios_base10exceptionsB7v160006Ev, symObjAddr: 0x39FC, symBinAddr: 0x100006C94, symSize: 0x18 }
  - { offsetInCU: 0x12AF6, offset: 0x12AF6, size: 0x8, addend: 0x0, symName: __ZNSt3__115__list_iteratorI4SongPvEppB7v160006Ev, symObjAddr: 0x3A14, symBinAddr: 0x100006CAC, symSize: 0x20 }
  - { offsetInCU: 0x12B24, offset: 0x12B24, size: 0x8, addend: 0x0, symName: __ZNSt3__115__list_iteratorI4SongPvEppB7v160006Ev, symObjAddr: 0x3A14, symBinAddr: 0x100006CAC, symSize: 0x20 }
  - { offsetInCU: 0x12B2C, offset: 0x12B2C, size: 0x8, addend: 0x0, symName: __ZNSt3__110__list_impI4SongNS_9allocatorIS1_EEE3endB7v160006Ev, symObjAddr: 0x3A34, symBinAddr: 0x100006CCC, symSize: 0x3C }
  - { offsetInCU: 0x12B58, offset: 0x12B58, size: 0x8, addend: 0x0, symName: __ZNSt3__110__list_impI4SongNS_9allocatorIS1_EEE3endB7v160006Ev, symObjAddr: 0x3A34, symBinAddr: 0x100006CCC, symSize: 0x3C }
  - { offsetInCU: 0x12B60, offset: 0x12B60, size: 0x8, addend: 0x0, symName: __ZNSt3__115__list_iteratorI4SongPvEmmB7v160006Ev, symObjAddr: 0x3A70, symBinAddr: 0x100006D08, symSize: 0x20 }
  - { offsetInCU: 0x12B8B, offset: 0x12B8B, size: 0x8, addend: 0x0, symName: __ZNSt3__115__list_iteratorI4SongPvEmmB7v160006Ev, symObjAddr: 0x3A70, symBinAddr: 0x100006D08, symSize: 0x20 }
  - { offsetInCU: 0x12B93, offset: 0x12B93, size: 0x8, addend: 0x0, symName: __ZNSt3__112basic_stringIcNS_11char_traitsIcEENS_9allocatorIcEEEC2B7v160006Ev, symObjAddr: 0x3A90, symBinAddr: 0x100006D28, symSize: 0x50 }
  - { offsetInCU: 0x12BBF, offset: 0x12BBF, size: 0x8, addend: 0x0, symName: __ZNSt3__112basic_stringIcNS_11char_traitsIcEENS_9allocatorIcEEEC2B7v160006Ev, symObjAddr: 0x3A90, symBinAddr: 0x100006D28, symSize: 0x50 }
  - { offsetInCU: 0x12BC7, offset: 0x12BC7, size: 0x8, addend: 0x0, symName: __ZNSt3__112basic_stringIcNS_11char_traitsIcEENS_9allocatorIcEEE14__default_initB7v160006Ev, symObjAddr: 0x3AE0, symBinAddr: 0x100006D78, symSize: 0x40 }
  - { offsetInCU: 0x12BF6, offset: 0x12BF6, size: 0x8, addend: 0x0, symName: __ZNSt3__112basic_stringIcNS_11char_traitsIcEENS_9allocatorIcEEE14__default_initB7v160006Ev, symObjAddr: 0x3AE0, symBinAddr: 0x100006D78, symSize: 0x40 }
  - { offsetInCU: 0x12BFE, offset: 0x12BFE, size: 0x8, addend: 0x0, symName: __ZNSt3__17getlineB7v160006IcNS_11char_traitsIcEENS_9allocatorIcEEEERNS_13basic_istreamIT_T0_EES9_RNS_12basic_stringIS6_S7_T1_EES6_, symObjAddr: 0x3B20, symBinAddr: 0x100006DB8, symSize: 0x234 }
  - { offsetInCU: 0x12C29, offset: 0x12C29, size: 0x8, addend: 0x0, symName: __ZNSt3__112basic_stringIcNS_11char_traitsIcEENS_9allocatorIcEEE5clearB7v160006Ev, symObjAddr: 0x3D54, symBinAddr: 0x100006FEC, symSize: 0x88 }
  - { offsetInCU: 0x12C31, offset: 0x12C31, size: 0x8, addend: 0x0, symName: __ZNSt3__111char_traitsIcE2eqEcc, symObjAddr: 0x3DDC, symBinAddr: 0x100007074, symSize: 0x28 }
  - { offsetInCU: 0x12C5E, offset: 0x12C5E, size: 0x8, addend: 0x0, symName: __ZNSt3__111char_traitsIcE2eqEcc, symObjAddr: 0x3DDC, symBinAddr: 0x100007074, symSize: 0x28 }
  - { offsetInCU: 0x12C66, offset: 0x12C66, size: 0x8, addend: 0x0, symName: __ZNKSt3__112basic_stringIcNS_11char_traitsIcEENS_9allocatorIcEEE8max_sizeB7v160006Ev, symObjAddr: 0x3E04, symBinAddr: 0x10000709C, symSize: 0xAC }
  - { offsetInCU: 0x12CA0, offset: 0x12CA0, size: 0x8, addend: 0x0, symName: __ZNKSt3__112basic_stringIcNS_11char_traitsIcEENS_9allocatorIcEEE8max_sizeB7v160006Ev, symObjAddr: 0x3E04, symBinAddr: 0x10000709C, symSize: 0xAC }
  - { offsetInCU: 0x12CA8, offset: 0x12CA8, size: 0x8, addend: 0x0, symName: __ZNSt3__125__debug_db_invalidate_allB7v160006INS_12basic_stringIcNS_11char_traitsIcEENS_9allocatorIcEEEEEEvPT_, symObjAddr: 0x3EB0, symBinAddr: 0x100007148, symSize: 0x10 }
  - { offsetInCU: 0x12D0B, offset: 0x12D0B, size: 0x8, addend: 0x0, symName: __ZNSt3__111char_traitsIcE6assignERcRKc, symObjAddr: 0x3EC0, symBinAddr: 0x100007158, symSize: 0x24 }
  - { offsetInCU: 0x12D13, offset: 0x12D13, size: 0x8, addend: 0x0, symName: __ZNSt3__112basic_stringIcNS_11char_traitsIcEENS_9allocatorIcEEE15__set_long_sizeB7v160006Em, symObjAddr: 0x3EE4, symBinAddr: 0x10000717C, symSize: 0x38 }
  - { offsetInCU: 0x12D4D, offset: 0x12D4D, size: 0x8, addend: 0x0, symName: __ZNSt3__112basic_stringIcNS_11char_traitsIcEENS_9allocatorIcEEE15__set_long_sizeB7v160006Em, symObjAddr: 0x3EE4, symBinAddr: 0x10000717C, symSize: 0x38 }
  - { offsetInCU: 0x12D55, offset: 0x12D55, size: 0x8, addend: 0x0, symName: __ZNSt3__112basic_stringIcNS_11char_traitsIcEENS_9allocatorIcEEE16__set_short_sizeB7v160006Em, symObjAddr: 0x3F1C, symBinAddr: 0x1000071B4, symSize: 0x78 }
  - { offsetInCU: 0x12D93, offset: 0x12D93, size: 0x8, addend: 0x0, symName: __ZNSt3__112basic_stringIcNS_11char_traitsIcEENS_9allocatorIcEEE16__set_short_sizeB7v160006Em, symObjAddr: 0x3F1C, symBinAddr: 0x1000071B4, symSize: 0x78 }
  - { offsetInCU: 0x12D9B, offset: 0x12D9B, size: 0x8, addend: 0x0, symName: __ZNSt3__116allocator_traitsINS_9allocatorIcEEE8max_sizeB7v160006IS2_vEEmRKS2_, symObjAddr: 0x3F94, symBinAddr: 0x10000722C, symSize: 0x24 }
  - { offsetInCU: 0x12DEB, offset: 0x12DEB, size: 0x8, addend: 0x0, symName: __ZNSt3__116allocator_traitsINS_9allocatorIcEEE8max_sizeB7v160006IS2_vEEmRKS2_, symObjAddr: 0x3F94, symBinAddr: 0x10000722C, symSize: 0x24 }
  - { offsetInCU: 0x12DF3, offset: 0x12DF3, size: 0x8, addend: 0x0, symName: __ZNKSt3__112basic_stringIcNS_11char_traitsIcEENS_9allocatorIcEEE7__allocB7v160006Ev, symObjAddr: 0x3FB8, symBinAddr: 0x100007250, symSize: 0x24 }
  - { offsetInCU: 0x12E29, offset: 0x12E29, size: 0x8, addend: 0x0, symName: __ZNKSt3__112basic_stringIcNS_11char_traitsIcEENS_9allocatorIcEEE7__allocB7v160006Ev, symObjAddr: 0x3FB8, symBinAddr: 0x100007250, symSize: 0x24 }
  - { offsetInCU: 0x12E31, offset: 0x12E31, size: 0x8, addend: 0x0, symName: __ZNSt3__114numeric_limitsImE3maxB7v160006Ev, symObjAddr: 0x3FDC, symBinAddr: 0x100007274, symSize: 0x14 }
  - { offsetInCU: 0x12E5C, offset: 0x12E5C, size: 0x8, addend: 0x0, symName: __ZNSt3__114numeric_limitsImE3maxB7v160006Ev, symObjAddr: 0x3FDC, symBinAddr: 0x100007274, symSize: 0x14 }
  - { offsetInCU: 0x12E64, offset: 0x12E64, size: 0x8, addend: 0x0, symName: __ZNKSt3__19allocatorIcE8max_sizeB7v160006Ev, symObjAddr: 0x3FF0, symBinAddr: 0x100007288, symSize: 0x14 }
  - { offsetInCU: 0x12E78, offset: 0x12E78, size: 0x8, addend: 0x0, symName: __ZNKSt3__19allocatorIcE8max_sizeB7v160006Ev, symObjAddr: 0x3FF0, symBinAddr: 0x100007288, symSize: 0x14 }
  - { offsetInCU: 0x12E80, offset: 0x12E80, size: 0x8, addend: 0x0, symName: __ZNKSt3__117__compressed_pairINS_12basic_stringIcNS_11char_traitsIcEENS_9allocatorIcEEE5__repES5_E6secondB7v160006Ev, symObjAddr: 0x4004, symBinAddr: 0x10000729C, symSize: 0x24 }
  - { offsetInCU: 0x12EAC, offset: 0x12EAC, size: 0x8, addend: 0x0, symName: __ZNKSt3__117__compressed_pairINS_12basic_stringIcNS_11char_traitsIcEENS_9allocatorIcEEE5__repES5_E6secondB7v160006Ev, symObjAddr: 0x4004, symBinAddr: 0x10000729C, symSize: 0x24 }
  - { offsetInCU: 0x12EB4, offset: 0x12EB4, size: 0x8, addend: 0x0, symName: __ZNKSt3__122__compressed_pair_elemINS_9allocatorIcEELi1ELb1EE5__getB7v160006Ev, symObjAddr: 0x4028, symBinAddr: 0x1000072C0, symSize: 0x14 }
  - { offsetInCU: 0x12EDF, offset: 0x12EDF, size: 0x8, addend: 0x0, symName: __ZNKSt3__122__compressed_pair_elemINS_9allocatorIcEELi1ELb1EE5__getB7v160006Ev, symObjAddr: 0x4028, symBinAddr: 0x1000072C0, symSize: 0x14 }
  - { offsetInCU: 0x12EE7, offset: 0x12EE7, size: 0x8, addend: 0x0, symName: __ZNSt3__123__libcpp_numeric_limitsImLb1EE3maxB7v160006Ev, symObjAddr: 0x403C, symBinAddr: 0x1000072D4, symSize: 0x8 }
  - { offsetInCU: 0x12F13, offset: 0x12F13, size: 0x8, addend: 0x0, symName: __ZNSt3__123__libcpp_numeric_limitsImLb1EE3maxB7v160006Ev, symObjAddr: 0x403C, symBinAddr: 0x1000072D4, symSize: 0x8 }
  - { offsetInCU: 0x12F1B, offset: 0x12F1B, size: 0x8, addend: 0x0, symName: __ZNSt3__116allocator_traitsINS_9allocatorINS_11__list_nodeI4SongPvEEEEE9constructB7v160006IS3_JS3_EvEEvRS6_PT_DpOT0_, symObjAddr: 0x4044, symBinAddr: 0x1000072DC, symSize: 0x34 }
  - { offsetInCU: 0x12F39, offset: 0x12F39, size: 0x8, addend: 0x0, symName: __ZNSt3__116allocator_traitsINS_9allocatorINS_11__list_nodeI4SongPvEEEEE9constructB7v160006IS3_JS3_EvEEvRS6_PT_DpOT0_, symObjAddr: 0x4044, symBinAddr: 0x1000072DC, symSize: 0x34 }
  - { offsetInCU: 0x12F41, offset: 0x12F41, size: 0x8, addend: 0x0, symName: __ZNSt3__14listI4SongNS_9allocatorIS1_EEE12__link_nodesEPNS_16__list_node_baseIS1_PvEES8_S8_, symObjAddr: 0x4078, symBinAddr: 0x100007310, symSize: 0x50 }
  - { offsetInCU: 0x12FAC, offset: 0x12FAC, size: 0x8, addend: 0x0, symName: __ZNSt3__14listI4SongNS_9allocatorIS1_EEE12__link_nodesEPNS_16__list_node_baseIS1_PvEES8_S8_, symObjAddr: 0x4078, symBinAddr: 0x100007310, symSize: 0x50 }
  - { offsetInCU: 0x12FB4, offset: 0x12FB4, size: 0x8, addend: 0x0, symName: __ZNSt3__19allocatorINS_11__list_nodeI4SongPvEEE9constructB7v160006IS2_JS2_EEEvPT_DpOT0_, symObjAddr: 0x40C8, symBinAddr: 0x100007360, symSize: 0x30 }
  - { offsetInCU: 0x13005, offset: 0x13005, size: 0x8, addend: 0x0, symName: __ZNSt3__19allocatorINS_11__list_nodeI4SongPvEEE9constructB7v160006IS2_JS2_EEEvPT_DpOT0_, symObjAddr: 0x40C8, symBinAddr: 0x100007360, symSize: 0x30 }
  - { offsetInCU: 0x1300D, offset: 0x1300D, size: 0x8, addend: 0x0, symName: __ZN4SongC1EOS_, symObjAddr: 0x40F8, symBinAddr: 0x100007390, symSize: 0x34 }
  - { offsetInCU: 0x13078, offset: 0x13078, size: 0x8, addend: 0x0, symName: __ZN4SongC1EOS_, symObjAddr: 0x40F8, symBinAddr: 0x100007390, symSize: 0x34 }
  - { offsetInCU: 0x13080, offset: 0x13080, size: 0x8, addend: 0x0, symName: __ZN4SongC2EOS_, symObjAddr: 0x412C, symBinAddr: 0x1000073C4, symSize: 0x54 }
  - { offsetInCU: 0x130BE, offset: 0x130BE, size: 0x8, addend: 0x0, symName: __ZN4SongC2EOS_, symObjAddr: 0x412C, symBinAddr: 0x1000073C4, symSize: 0x54 }
  - { offsetInCU: 0x130C6, offset: 0x130C6, size: 0x8, addend: 0x0, symName: __ZNSt3__112basic_stringIcNS_11char_traitsIcEENS_9allocatorIcEEEC1B7v160006EOS5_, symObjAddr: 0x4180, symBinAddr: 0x100007418, symSize: 0x34 }
  - { offsetInCU: 0x13104, offset: 0x13104, size: 0x8, addend: 0x0, symName: __ZNSt3__112basic_stringIcNS_11char_traitsIcEENS_9allocatorIcEEEC1B7v160006EOS5_, symObjAddr: 0x4180, symBinAddr: 0x100007418, symSize: 0x34 }
  - { offsetInCU: 0x1310C, offset: 0x1310C, size: 0x8, addend: 0x0, symName: __ZNSt3__112basic_stringIcNS_11char_traitsIcEENS_9allocatorIcEEEC2B7v160006EOS5_, symObjAddr: 0x41B4, symBinAddr: 0x10000744C, symSize: 0x80 }
  - { offsetInCU: 0x1314E, offset: 0x1314E, size: 0x8, addend: 0x0, symName: __ZNSt3__112basic_stringIcNS_11char_traitsIcEENS_9allocatorIcEEEC2B7v160006EOS5_, symObjAddr: 0x41B4, symBinAddr: 0x10000744C, symSize: 0x80 }
  - { offsetInCU: 0x13156, offset: 0x13156, size: 0x8, addend: 0x0, symName: __ZNSt3__115__debug_db_swapB7v160006INS_12basic_stringIcNS_11char_traitsIcEENS_9allocatorIcEEEEEEvPT_S8_, symObjAddr: 0x4234, symBinAddr: 0x1000074CC, symSize: 0x14 }
  - { offsetInCU: 0x13198, offset: 0x13198, size: 0x8, addend: 0x0, symName: __ZNSt3__121__list_const_iteratorI4SongPvEC2B7v160006ERKNS_15__list_iteratorIS1_S2_EE, symObjAddr: 0x4248, symBinAddr: 0x1000074E0, symSize: 0x24 }
...
